
bomb:     file format elf64-x86-64


Disassembly of section .init:

0000000000400af8 <_init>:
_init():
  400af8:	48 83 ec 08          	sub    $0x8,%rsp
  400afc:	48 8b 05 75 29 20 00 	mov    0x202975(%rip),%rax        # 603478 <_DYNAMIC+0x1d0>
  400b03:	48 85 c0             	test   %rax,%rax
  400b06:	74 05                	je     400b0d <_init+0x15>
  400b08:	e8 33 01 00 00       	callq  400c40 <__gmon_start__@plt>
  400b0d:	48 83 c4 08          	add    $0x8,%rsp
  400b11:	c3                   	retq   

Disassembly of section .plt:

0000000000400b20 <getenv@plt-0x10>:
  400b20:	ff 35 62 29 20 00    	pushq  0x202962(%rip)        # 603488 <_GLOBAL_OFFSET_TABLE_+0x8>
  400b26:	ff 25 64 29 20 00    	jmpq   *0x202964(%rip)        # 603490 <_GLOBAL_OFFSET_TABLE_+0x10>
  400b2c:	0f 1f 40 00          	nopl   0x0(%rax)

0000000000400b30 <getenv@plt>:
  400b30:	ff 25 62 29 20 00    	jmpq   *0x202962(%rip)        # 603498 <_GLOBAL_OFFSET_TABLE_+0x18>
  400b36:	68 00 00 00 00       	pushq  $0x0
  400b3b:	e9 e0 ff ff ff       	jmpq   400b20 <_init+0x28>

0000000000400b40 <__errno_location@plt>:
  400b40:	ff 25 5a 29 20 00    	jmpq   *0x20295a(%rip)        # 6034a0 <_GLOBAL_OFFSET_TABLE_+0x20>
  400b46:	68 01 00 00 00       	pushq  $0x1
  400b4b:	e9 d0 ff ff ff       	jmpq   400b20 <_init+0x28>

0000000000400b50 <strcpy@plt>:
  400b50:	ff 25 52 29 20 00    	jmpq   *0x202952(%rip)        # 6034a8 <_GLOBAL_OFFSET_TABLE_+0x28>
  400b56:	68 02 00 00 00       	pushq  $0x2
  400b5b:	e9 c0 ff ff ff       	jmpq   400b20 <_init+0x28>

0000000000400b60 <puts@plt>:
  400b60:	ff 25 4a 29 20 00    	jmpq   *0x20294a(%rip)        # 6034b0 <_GLOBAL_OFFSET_TABLE_+0x30>
  400b66:	68 03 00 00 00       	pushq  $0x3
  400b6b:	e9 b0 ff ff ff       	jmpq   400b20 <_init+0x28>

0000000000400b70 <write@plt>:
  400b70:	ff 25 42 29 20 00    	jmpq   *0x202942(%rip)        # 6034b8 <_GLOBAL_OFFSET_TABLE_+0x38>
  400b76:	68 04 00 00 00       	pushq  $0x4
  400b7b:	e9 a0 ff ff ff       	jmpq   400b20 <_init+0x28>

0000000000400b80 <strlen@plt>:
  400b80:	ff 25 3a 29 20 00    	jmpq   *0x20293a(%rip)        # 6034c0 <_GLOBAL_OFFSET_TABLE_+0x40>
  400b86:	68 05 00 00 00       	pushq  $0x5
  400b8b:	e9 90 ff ff ff       	jmpq   400b20 <_init+0x28>

0000000000400b90 <htons@plt>:
  400b90:	ff 25 32 29 20 00    	jmpq   *0x202932(%rip)        # 6034c8 <_GLOBAL_OFFSET_TABLE_+0x48>
  400b96:	68 06 00 00 00       	pushq  $0x6
  400b9b:	e9 80 ff ff ff       	jmpq   400b20 <_init+0x28>

0000000000400ba0 <printf@plt>:
  400ba0:	ff 25 2a 29 20 00    	jmpq   *0x20292a(%rip)        # 6034d0 <_GLOBAL_OFFSET_TABLE_+0x50>
  400ba6:	68 07 00 00 00       	pushq  $0x7
  400bab:	e9 70 ff ff ff       	jmpq   400b20 <_init+0x28>

0000000000400bb0 <alarm@plt>:
  400bb0:	ff 25 22 29 20 00    	jmpq   *0x202922(%rip)        # 6034d8 <_GLOBAL_OFFSET_TABLE_+0x58>
  400bb6:	68 08 00 00 00       	pushq  $0x8
  400bbb:	e9 60 ff ff ff       	jmpq   400b20 <_init+0x28>

0000000000400bc0 <close@plt>:
  400bc0:	ff 25 1a 29 20 00    	jmpq   *0x20291a(%rip)        # 6034e0 <_GLOBAL_OFFSET_TABLE_+0x60>
  400bc6:	68 09 00 00 00       	pushq  $0x9
  400bcb:	e9 50 ff ff ff       	jmpq   400b20 <_init+0x28>

0000000000400bd0 <read@plt>:
  400bd0:	ff 25 12 29 20 00    	jmpq   *0x202912(%rip)        # 6034e8 <_GLOBAL_OFFSET_TABLE_+0x68>
  400bd6:	68 0a 00 00 00       	pushq  $0xa
  400bdb:	e9 40 ff ff ff       	jmpq   400b20 <_init+0x28>

0000000000400be0 <__libc_start_main@plt>:
  400be0:	ff 25 0a 29 20 00    	jmpq   *0x20290a(%rip)        # 6034f0 <_GLOBAL_OFFSET_TABLE_+0x70>
  400be6:	68 0b 00 00 00       	pushq  $0xb
  400beb:	e9 30 ff ff ff       	jmpq   400b20 <_init+0x28>

0000000000400bf0 <fgets@plt>:
  400bf0:	ff 25 02 29 20 00    	jmpq   *0x202902(%rip)        # 6034f8 <_GLOBAL_OFFSET_TABLE_+0x78>
  400bf6:	68 0c 00 00 00       	pushq  $0xc
  400bfb:	e9 20 ff ff ff       	jmpq   400b20 <_init+0x28>

0000000000400c00 <strcmp@plt>:
  400c00:	ff 25 fa 28 20 00    	jmpq   *0x2028fa(%rip)        # 603500 <_GLOBAL_OFFSET_TABLE_+0x80>
  400c06:	68 0d 00 00 00       	pushq  $0xd
  400c0b:	e9 10 ff ff ff       	jmpq   400b20 <_init+0x28>

0000000000400c10 <signal@plt>:
  400c10:	ff 25 f2 28 20 00    	jmpq   *0x2028f2(%rip)        # 603508 <_GLOBAL_OFFSET_TABLE_+0x88>
  400c16:	68 0e 00 00 00       	pushq  $0xe
  400c1b:	e9 00 ff ff ff       	jmpq   400b20 <_init+0x28>

0000000000400c20 <gethostbyname@plt>:
  400c20:	ff 25 ea 28 20 00    	jmpq   *0x2028ea(%rip)        # 603510 <_GLOBAL_OFFSET_TABLE_+0x90>
  400c26:	68 0f 00 00 00       	pushq  $0xf
  400c2b:	e9 f0 fe ff ff       	jmpq   400b20 <_init+0x28>

0000000000400c30 <fprintf@plt>:
  400c30:	ff 25 e2 28 20 00    	jmpq   *0x2028e2(%rip)        # 603518 <_GLOBAL_OFFSET_TABLE_+0x98>
  400c36:	68 10 00 00 00       	pushq  $0x10
  400c3b:	e9 e0 fe ff ff       	jmpq   400b20 <_init+0x28>

0000000000400c40 <__gmon_start__@plt>:
  400c40:	ff 25 da 28 20 00    	jmpq   *0x2028da(%rip)        # 603520 <_GLOBAL_OFFSET_TABLE_+0xa0>
  400c46:	68 11 00 00 00       	pushq  $0x11
  400c4b:	e9 d0 fe ff ff       	jmpq   400b20 <_init+0x28>

0000000000400c50 <memcpy@plt>:
  400c50:	ff 25 d2 28 20 00    	jmpq   *0x2028d2(%rip)        # 603528 <_GLOBAL_OFFSET_TABLE_+0xa8>
  400c56:	68 12 00 00 00       	pushq  $0x12
  400c5b:	e9 c0 fe ff ff       	jmpq   400b20 <_init+0x28>

0000000000400c60 <fflush@plt>:
  400c60:	ff 25 ca 28 20 00    	jmpq   *0x2028ca(%rip)        # 603530 <_GLOBAL_OFFSET_TABLE_+0xb0>
  400c66:	68 13 00 00 00       	pushq  $0x13
  400c6b:	e9 b0 fe ff ff       	jmpq   400b20 <_init+0x28>

0000000000400c70 <__isoc99_sscanf@plt>:
  400c70:	ff 25 c2 28 20 00    	jmpq   *0x2028c2(%rip)        # 603538 <_GLOBAL_OFFSET_TABLE_+0xb8>
  400c76:	68 14 00 00 00       	pushq  $0x14
  400c7b:	e9 a0 fe ff ff       	jmpq   400b20 <_init+0x28>

0000000000400c80 <bcopy@plt>:
  400c80:	ff 25 ba 28 20 00    	jmpq   *0x2028ba(%rip)        # 603540 <_GLOBAL_OFFSET_TABLE_+0xc0>
  400c86:	68 15 00 00 00       	pushq  $0x15
  400c8b:	e9 90 fe ff ff       	jmpq   400b20 <_init+0x28>

0000000000400c90 <fopen@plt>:
  400c90:	ff 25 b2 28 20 00    	jmpq   *0x2028b2(%rip)        # 603548 <_GLOBAL_OFFSET_TABLE_+0xc8>
  400c96:	68 16 00 00 00       	pushq  $0x16
  400c9b:	e9 80 fe ff ff       	jmpq   400b20 <_init+0x28>

0000000000400ca0 <bzero@plt>:
  400ca0:	ff 25 aa 28 20 00    	jmpq   *0x2028aa(%rip)        # 603550 <_GLOBAL_OFFSET_TABLE_+0xd0>
  400ca6:	68 17 00 00 00       	pushq  $0x17
  400cab:	e9 70 fe ff ff       	jmpq   400b20 <_init+0x28>

0000000000400cb0 <atoi@plt>:
  400cb0:	ff 25 a2 28 20 00    	jmpq   *0x2028a2(%rip)        # 603558 <_GLOBAL_OFFSET_TABLE_+0xd8>
  400cb6:	68 18 00 00 00       	pushq  $0x18
  400cbb:	e9 60 fe ff ff       	jmpq   400b20 <_init+0x28>

0000000000400cc0 <sprintf@plt>:
  400cc0:	ff 25 9a 28 20 00    	jmpq   *0x20289a(%rip)        # 603560 <_GLOBAL_OFFSET_TABLE_+0xe0>
  400cc6:	68 19 00 00 00       	pushq  $0x19
  400ccb:	e9 50 fe ff ff       	jmpq   400b20 <_init+0x28>

0000000000400cd0 <exit@plt>:
  400cd0:	ff 25 92 28 20 00    	jmpq   *0x202892(%rip)        # 603568 <_GLOBAL_OFFSET_TABLE_+0xe8>
  400cd6:	68 1a 00 00 00       	pushq  $0x1a
  400cdb:	e9 40 fe ff ff       	jmpq   400b20 <_init+0x28>

0000000000400ce0 <connect@plt>:
  400ce0:	ff 25 8a 28 20 00    	jmpq   *0x20288a(%rip)        # 603570 <_GLOBAL_OFFSET_TABLE_+0xf0>
  400ce6:	68 1b 00 00 00       	pushq  $0x1b
  400ceb:	e9 30 fe ff ff       	jmpq   400b20 <_init+0x28>

0000000000400cf0 <sleep@plt>:
  400cf0:	ff 25 82 28 20 00    	jmpq   *0x202882(%rip)        # 603578 <_GLOBAL_OFFSET_TABLE_+0xf8>
  400cf6:	68 1c 00 00 00       	pushq  $0x1c
  400cfb:	e9 20 fe ff ff       	jmpq   400b20 <_init+0x28>

0000000000400d00 <__ctype_b_loc@plt>:
  400d00:	ff 25 7a 28 20 00    	jmpq   *0x20287a(%rip)        # 603580 <_GLOBAL_OFFSET_TABLE_+0x100>
  400d06:	68 1d 00 00 00       	pushq  $0x1d
  400d0b:	e9 10 fe ff ff       	jmpq   400b20 <_init+0x28>

0000000000400d10 <socket@plt>:
  400d10:	ff 25 72 28 20 00    	jmpq   *0x202872(%rip)        # 603588 <_GLOBAL_OFFSET_TABLE_+0x108>
  400d16:	68 1e 00 00 00       	pushq  $0x1e
  400d1b:	e9 00 fe ff ff       	jmpq   400b20 <_init+0x28>

Disassembly of section .text:

0000000000400d20 <_start>:
_start():
  400d20:	31 ed                	xor    %ebp,%ebp
  400d22:	49 89 d1             	mov    %rdx,%r9
  400d25:	5e                   	pop    %rsi
  400d26:	48 89 e2             	mov    %rsp,%rdx
  400d29:	48 83 e4 f0          	and    $0xfffffffffffffff0,%rsp
  400d2d:	50                   	push   %rax
  400d2e:	54                   	push   %rsp
  400d2f:	49 c7 c0 80 27 40 00 	mov    $0x402780,%r8
  400d36:	48 c7 c1 10 27 40 00 	mov    $0x402710,%rcx
  400d3d:	48 c7 c7 16 0e 40 00 	mov    $0x400e16,%rdi
  400d44:	e8 97 fe ff ff       	callq  400be0 <__libc_start_main@plt>
  400d49:	f4                   	hlt    
  400d4a:	66 0f 1f 44 00 00    	nopw   0x0(%rax,%rax,1)

0000000000400d50 <deregister_tm_clones>:
deregister_tm_clones():
  400d50:	b8 47 3c 60 00       	mov    $0x603c47,%eax
  400d55:	55                   	push   %rbp
  400d56:	48 2d 40 3c 60 00    	sub    $0x603c40,%rax
  400d5c:	48 83 f8 0e          	cmp    $0xe,%rax
  400d60:	48 89 e5             	mov    %rsp,%rbp
  400d63:	76 1b                	jbe    400d80 <deregister_tm_clones+0x30>
  400d65:	b8 00 00 00 00       	mov    $0x0,%eax
  400d6a:	48 85 c0             	test   %rax,%rax
  400d6d:	74 11                	je     400d80 <deregister_tm_clones+0x30>
  400d6f:	5d                   	pop    %rbp
  400d70:	bf 40 3c 60 00       	mov    $0x603c40,%edi
  400d75:	ff e0                	jmpq   *%rax
  400d77:	66 0f 1f 84 00 00 00 	nopw   0x0(%rax,%rax,1)
  400d7e:	00 00 
  400d80:	5d                   	pop    %rbp
  400d81:	c3                   	retq   
  400d82:	66 66 66 66 66 2e 0f 	data16 data16 data16 data16 nopw %cs:0x0(%rax,%rax,1)
  400d89:	1f 84 00 00 00 00 00 

0000000000400d90 <register_tm_clones>:
register_tm_clones():
  400d90:	be 40 3c 60 00       	mov    $0x603c40,%esi
  400d95:	55                   	push   %rbp
  400d96:	48 81 ee 40 3c 60 00 	sub    $0x603c40,%rsi
  400d9d:	48 c1 fe 03          	sar    $0x3,%rsi
  400da1:	48 89 e5             	mov    %rsp,%rbp
  400da4:	48 89 f0             	mov    %rsi,%rax
  400da7:	48 c1 e8 3f          	shr    $0x3f,%rax
  400dab:	48 01 c6             	add    %rax,%rsi
  400dae:	48 d1 fe             	sar    %rsi
  400db1:	74 15                	je     400dc8 <register_tm_clones+0x38>
  400db3:	b8 00 00 00 00       	mov    $0x0,%eax
  400db8:	48 85 c0             	test   %rax,%rax
  400dbb:	74 0b                	je     400dc8 <register_tm_clones+0x38>
  400dbd:	5d                   	pop    %rbp
  400dbe:	bf 40 3c 60 00       	mov    $0x603c40,%edi
  400dc3:	ff e0                	jmpq   *%rax
  400dc5:	0f 1f 00             	nopl   (%rax)
  400dc8:	5d                   	pop    %rbp
  400dc9:	c3                   	retq   
  400dca:	66 0f 1f 44 00 00    	nopw   0x0(%rax,%rax,1)

0000000000400dd0 <__do_global_dtors_aux>:
__do_global_dtors_aux():
  400dd0:	80 3d 81 2e 20 00 00 	cmpb   $0x0,0x202e81(%rip)        # 603c58 <completed.6661>
  400dd7:	75 11                	jne    400dea <__do_global_dtors_aux+0x1a>
  400dd9:	55                   	push   %rbp
  400dda:	48 89 e5             	mov    %rsp,%rbp
  400ddd:	e8 6e ff ff ff       	callq  400d50 <deregister_tm_clones>
  400de2:	5d                   	pop    %rbp
  400de3:	c6 05 6e 2e 20 00 01 	movb   $0x1,0x202e6e(%rip)        # 603c58 <completed.6661>
  400dea:	f3 c3                	repz retq 
  400dec:	0f 1f 40 00          	nopl   0x0(%rax)

0000000000400df0 <frame_dummy>:
frame_dummy():
  400df0:	bf a0 32 60 00       	mov    $0x6032a0,%edi
  400df5:	48 83 3f 00          	cmpq   $0x0,(%rdi)
  400df9:	75 05                	jne    400e00 <frame_dummy+0x10>
  400dfb:	eb 93                	jmp    400d90 <register_tm_clones>
  400dfd:	0f 1f 00             	nopl   (%rax)
  400e00:	b8 00 00 00 00       	mov    $0x0,%eax
  400e05:	48 85 c0             	test   %rax,%rax
  400e08:	74 f1                	je     400dfb <frame_dummy+0xb>
  400e0a:	55                   	push   %rbp
  400e0b:	48 89 e5             	mov    %rsp,%rbp
  400e0e:	ff d0                	callq  *%rax
  400e10:	5d                   	pop    %rbp
  400e11:	e9 7a ff ff ff       	jmpq   400d90 <register_tm_clones>

0000000000400e16 <main>:
main():
/home/tbartens/CS220/proj3/src/bomb.c:37
  400e16:	55                   	push   %rbp
  400e17:	48 89 e5             	mov    %rsp,%rbp
  400e1a:	48 83 ec 20          	sub    $0x20,%rsp
  400e1e:	89 7d ec             	mov    %edi,-0x14(%rbp)
  400e21:	48 89 75 e0          	mov    %rsi,-0x20(%rbp)
/home/tbartens/CS220/proj3/src/bomb.c:45
  400e25:	83 7d ec 01          	cmpl   $0x1,-0x14(%rbp)
  400e29:	75 13                	jne    400e3e <main+0x28>
/home/tbartens/CS220/proj3/src/bomb.c:46
  400e2b:	48 8b 05 16 2e 20 00 	mov    0x202e16(%rip),%rax        # 603c48 <stdin@@GLIBC_2.2.5>
  400e32:	48 89 05 27 2e 20 00 	mov    %rax,0x202e27(%rip)        # 603c60 <infile>
  400e39:	e9 82 00 00 00       	jmpq   400ec0 <main+0xaa>
/home/tbartens/CS220/proj3/src/bomb.c:53
  400e3e:	83 7d ec 02          	cmpl   $0x2,-0x14(%rbp)
  400e42:	75 59                	jne    400e9d <main+0x87>
/home/tbartens/CS220/proj3/src/bomb.c:54
  400e44:	48 8b 45 e0          	mov    -0x20(%rbp),%rax
  400e48:	48 83 c0 08          	add    $0x8,%rax
  400e4c:	48 8b 00             	mov    (%rax),%rax
  400e4f:	be 98 27 40 00       	mov    $0x402798,%esi
  400e54:	48 89 c7             	mov    %rax,%rdi
  400e57:	e8 34 fe ff ff       	callq  400c90 <fopen@plt>
  400e5c:	48 89 05 fd 2d 20 00 	mov    %rax,0x202dfd(%rip)        # 603c60 <infile>
  400e63:	48 8b 05 f6 2d 20 00 	mov    0x202df6(%rip),%rax        # 603c60 <infile>
  400e6a:	48 85 c0             	test   %rax,%rax
  400e6d:	75 51                	jne    400ec0 <main+0xaa>
/home/tbartens/CS220/proj3/src/bomb.c:55
  400e6f:	48 8b 45 e0          	mov    -0x20(%rbp),%rax
  400e73:	48 83 c0 08          	add    $0x8,%rax
  400e77:	48 8b 10             	mov    (%rax),%rdx
  400e7a:	48 8b 45 e0          	mov    -0x20(%rbp),%rax
  400e7e:	48 8b 00             	mov    (%rax),%rax
  400e81:	48 89 c6             	mov    %rax,%rsi
  400e84:	bf 9a 27 40 00       	mov    $0x40279a,%edi
  400e89:	b8 00 00 00 00       	mov    $0x0,%eax
  400e8e:	e8 0d fd ff ff       	callq  400ba0 <printf@plt>
/home/tbartens/CS220/proj3/src/bomb.c:56
  400e93:	bf 08 00 00 00       	mov    $0x8,%edi
  400e98:	e8 33 fe ff ff       	callq  400cd0 <exit@plt>
/home/tbartens/CS220/proj3/src/bomb.c:62
  400e9d:	48 8b 45 e0          	mov    -0x20(%rbp),%rax
  400ea1:	48 8b 00             	mov    (%rax),%rax
  400ea4:	48 89 c6             	mov    %rax,%rsi
  400ea7:	bf b7 27 40 00       	mov    $0x4027b7,%edi
  400eac:	b8 00 00 00 00       	mov    $0x0,%eax
  400eb1:	e8 ea fc ff ff       	callq  400ba0 <printf@plt>
/home/tbartens/CS220/proj3/src/bomb.c:63
  400eb6:	bf 08 00 00 00       	mov    $0x8,%edi
  400ebb:	e8 10 fe ff ff       	callq  400cd0 <exit@plt>
/home/tbartens/CS220/proj3/src/bomb.c:67
  400ec0:	e8 78 07 00 00       	callq  40163d <initialize_bomb>
/home/tbartens/CS220/proj3/src/bomb.c:69
  400ec5:	bf d8 27 40 00       	mov    $0x4027d8,%edi
  400eca:	e8 91 fc ff ff       	callq  400b60 <puts@plt>
/home/tbartens/CS220/proj3/src/bomb.c:70
  400ecf:	bf 18 28 40 00       	mov    $0x402818,%edi
  400ed4:	e8 87 fc ff ff       	callq  400b60 <puts@plt>
/home/tbartens/CS220/proj3/src/bomb.c:73
  400ed9:	e8 32 08 00 00       	callq  401710 <read_line>
  400ede:	48 89 45 f8          	mov    %rax,-0x8(%rbp)
/home/tbartens/CS220/proj3/src/bomb.c:74
  400ee2:	48 8b 45 f8          	mov    -0x8(%rbp),%rax
  400ee6:	48 89 c7             	mov    %rax,%rdi
  400ee9:	e8 c0 00 00 00       	callq  400fae <phase_1>
/home/tbartens/CS220/proj3/src/bomb.c:75
  400eee:	e8 a5 09 00 00       	callq  401898 <phase_defused>
/home/tbartens/CS220/proj3/src/bomb.c:77
  400ef3:	bf 48 28 40 00       	mov    $0x402848,%edi
  400ef8:	e8 63 fc ff ff       	callq  400b60 <puts@plt>
/home/tbartens/CS220/proj3/src/bomb.c:81
  400efd:	e8 0e 08 00 00       	callq  401710 <read_line>
  400f02:	48 89 45 f8          	mov    %rax,-0x8(%rbp)
/home/tbartens/CS220/proj3/src/bomb.c:82
  400f06:	48 8b 45 f8          	mov    -0x8(%rbp),%rax
  400f0a:	48 89 c7             	mov    %rax,%rdi
  400f0d:	e8 c4 00 00 00       	callq  400fd6 <phase_2>
/home/tbartens/CS220/proj3/src/bomb.c:83
  400f12:	e8 81 09 00 00       	callq  401898 <phase_defused>
/home/tbartens/CS220/proj3/src/bomb.c:84
  400f17:	bf 71 28 40 00       	mov    $0x402871,%edi
  400f1c:	e8 3f fc ff ff       	callq  400b60 <puts@plt>
/home/tbartens/CS220/proj3/src/bomb.c:88
  400f21:	e8 ea 07 00 00       	callq  401710 <read_line>
  400f26:	48 89 45 f8          	mov    %rax,-0x8(%rbp)
/home/tbartens/CS220/proj3/src/bomb.c:89
  400f2a:	48 8b 45 f8          	mov    -0x8(%rbp),%rax
  400f2e:	48 89 c7             	mov    %rax,%rdi
  400f31:	e8 01 01 00 00       	callq  401037 <phase_3>
/home/tbartens/CS220/proj3/src/bomb.c:90
  400f36:	e8 5d 09 00 00       	callq  401898 <phase_defused>
/home/tbartens/CS220/proj3/src/bomb.c:91
  400f3b:	bf 8f 28 40 00       	mov    $0x40288f,%edi
  400f40:	e8 1b fc ff ff       	callq  400b60 <puts@plt>
/home/tbartens/CS220/proj3/src/bomb.c:94
  400f45:	e8 c6 07 00 00       	callq  401710 <read_line>
  400f4a:	48 89 45 f8          	mov    %rax,-0x8(%rbp)
/home/tbartens/CS220/proj3/src/bomb.c:95
  400f4e:	48 8b 45 f8          	mov    -0x8(%rbp),%rax
  400f52:	48 89 c7             	mov    %rax,%rdi
  400f55:	e8 09 02 00 00       	callq  401163 <phase_4>
/home/tbartens/CS220/proj3/src/bomb.c:96
  400f5a:	e8 39 09 00 00       	callq  401898 <phase_defused>
/home/tbartens/CS220/proj3/src/bomb.c:97
  400f5f:	bf a0 28 40 00       	mov    $0x4028a0,%edi
  400f64:	e8 f7 fb ff ff       	callq  400b60 <puts@plt>
/home/tbartens/CS220/proj3/src/bomb.c:100
  400f69:	e8 a2 07 00 00       	callq  401710 <read_line>
  400f6e:	48 89 45 f8          	mov    %rax,-0x8(%rbp)
/home/tbartens/CS220/proj3/src/bomb.c:101
  400f72:	48 8b 45 f8          	mov    -0x8(%rbp),%rax
  400f76:	48 89 c7             	mov    %rax,%rdi
  400f79:	e8 61 02 00 00       	callq  4011df <phase_5>
/home/tbartens/CS220/proj3/src/bomb.c:102
  400f7e:	e8 15 09 00 00       	callq  401898 <phase_defused>
/home/tbartens/CS220/proj3/src/bomb.c:103
  400f83:	bf c4 28 40 00       	mov    $0x4028c4,%edi
  400f88:	e8 d3 fb ff ff       	callq  400b60 <puts@plt>
/home/tbartens/CS220/proj3/src/bomb.c:107
  400f8d:	e8 7e 07 00 00       	callq  401710 <read_line>
  400f92:	48 89 45 f8          	mov    %rax,-0x8(%rbp)
/home/tbartens/CS220/proj3/src/bomb.c:108
  400f96:	48 8b 45 f8          	mov    -0x8(%rbp),%rax
  400f9a:	48 89 c7             	mov    %rax,%rdi
  400f9d:	e8 be 02 00 00       	callq  401260 <phase_6>
/home/tbartens/CS220/proj3/src/bomb.c:109
  400fa2:	e8 f1 08 00 00       	callq  401898 <phase_defused>
/home/tbartens/CS220/proj3/src/bomb.c:114
  400fa7:	b8 00 00 00 00       	mov    $0x0,%eax
/home/tbartens/CS220/proj3/src/bomb.c:115
  400fac:	c9                   	leaveq 
  400fad:	c3                   	retq   

0000000000400fae <phase_1>:
phase_1():
  400fae:	55                   	push   %rbp
  400faf:	48 89 e5             	mov    %rsp,%rbp
  400fb2:	48 83 ec 10          	sub    $0x10,%rsp
  400fb6:	48 89 7d f8          	mov    %rdi,-0x8(%rbp)
  400fba:	48 8b 45 f8          	mov    -0x8(%rbp),%rax
  400fbe:	be e8 28 40 00       	mov    $0x4028e8,%esi
  400fc3:	48 89 c7             	mov    %rax,%rdi
  400fc6:	e8 f0 05 00 00       	callq  4015bb <strings_not_equal>
  400fcb:	85 c0                	test   %eax,%eax
  400fcd:	74 05                	je     400fd4 <phase_1+0x26>
  400fcf:	e8 a2 08 00 00       	callq  401876 <explode_bomb>
  400fd4:	c9                   	leaveq 
  400fd5:	c3                   	retq   

0000000000400fd6 <phase_2>:
phase_2():
  400fd6:	55                   	push   %rbp
  400fd7:	48 89 e5             	mov    %rsp,%rbp
  400fda:	48 83 ec 30          	sub    $0x30,%rsp
  400fde:	48 89 7d d8          	mov    %rdi,-0x28(%rbp)
  400fe2:	48 8d 55 e0          	lea    -0x20(%rbp),%rdx
  400fe6:	48 8b 45 d8          	mov    -0x28(%rbp),%rax
  400fea:	48 89 d6             	mov    %rdx,%rsi
  400fed:	48 89 c7             	mov    %rax,%rdi
  400ff0:	e8 2c 05 00 00       	callq  401521 <read_six_numbers>
  400ff5:	8b 45 e0             	mov    -0x20(%rbp),%eax
  400ff8:	83 f8 01             	cmp    $0x1,%eax
  400ffb:	74 05                	je     401002 <phase_2+0x2c>
  400ffd:	e8 74 08 00 00       	callq  401876 <explode_bomb>
  401002:	c7 45 fc 01 00 00 00 	movl   $0x1,-0x4(%rbp)
  401009:	eb 24                	jmp    40102f <phase_2+0x59>
  40100b:	8b 45 fc             	mov    -0x4(%rbp),%eax
  40100e:	48 98                	cltq   
  401010:	8b 54 85 e0          	mov    -0x20(%rbp,%rax,4),%edx
  401014:	8b 45 fc             	mov    -0x4(%rbp),%eax
  401017:	83 e8 01             	sub    $0x1,%eax
  40101a:	48 98                	cltq   
  40101c:	8b 44 85 e0          	mov    -0x20(%rbp,%rax,4),%eax
  401020:	01 c0                	add    %eax,%eax
  401022:	39 c2                	cmp    %eax,%edx
  401024:	74 05                	je     40102b <phase_2+0x55>
  401026:	e8 4b 08 00 00       	callq  401876 <explode_bomb>
  40102b:	83 45 fc 01          	addl   $0x1,-0x4(%rbp)
  40102f:	83 7d fc 05          	cmpl   $0x5,-0x4(%rbp)
  401033:	7e d6                	jle    40100b <phase_2+0x35>
  401035:	c9                   	leaveq 
  401036:	c3                   	retq   

0000000000401037 <phase_3>:
phase_3():
  401037:	55                   	push   %rbp
  401038:	48 89 e5             	mov    %rsp,%rbp
  40103b:	48 83 ec 20          	sub    $0x20,%rsp
  40103f:	48 89 7d e8          	mov    %rdi,-0x18(%rbp)
  401043:	c7 45 fc 00 00 00 00 	movl   $0x0,-0x4(%rbp)
  40104a:	c7 45 f8 00 00 00 00 	movl   $0x0,-0x8(%rbp)
  401051:	48 8d 4d f0          	lea    -0x10(%rbp),%rcx
  401055:	48 8d 55 f4          	lea    -0xc(%rbp),%rdx
  401059:	48 8b 45 e8          	mov    -0x18(%rbp),%rax
  40105d:	be 06 29 40 00       	mov    $0x402906,%esi
  401062:	48 89 c7             	mov    %rax,%rdi
  401065:	b8 00 00 00 00       	mov    $0x0,%eax
  40106a:	e8 01 fc ff ff       	callq  400c70 <__isoc99_sscanf@plt>
  40106f:	89 45 f8             	mov    %eax,-0x8(%rbp)
  401072:	83 7d f8 01          	cmpl   $0x1,-0x8(%rbp)
  401076:	7f 05                	jg     40107d <phase_3+0x46>
  401078:	e8 f9 07 00 00       	callq  401876 <explode_bomb>
  40107d:	8b 45 f4             	mov    -0xc(%rbp),%eax
  401080:	83 f8 07             	cmp    $0x7,%eax
  401083:	77 54                	ja     4010d9 <phase_3+0xa2>
  401085:	89 c0                	mov    %eax,%eax
  401087:	48 8b 04 c5 10 29 40 	mov    0x402910(,%rax,8),%rax
  40108e:	00 
  40108f:	ff e0                	jmpq   *%rax
  401091:	c7 45 fc 98 02 00 00 	movl   $0x298,-0x4(%rbp)
  401098:	eb 44                	jmp    4010de <phase_3+0xa7>
  40109a:	c7 45 fc e3 03 00 00 	movl   $0x3e3,-0x4(%rbp)
  4010a1:	eb 3b                	jmp    4010de <phase_3+0xa7>
  4010a3:	c7 45 fc 84 00 00 00 	movl   $0x84,-0x4(%rbp)
  4010aa:	eb 32                	jmp    4010de <phase_3+0xa7>
  4010ac:	c7 45 fc 84 03 00 00 	movl   $0x384,-0x4(%rbp)
  4010b3:	eb 29                	jmp    4010de <phase_3+0xa7>
  4010b5:	c7 45 fc d8 02 00 00 	movl   $0x2d8,-0x4(%rbp)
  4010bc:	eb 20                	jmp    4010de <phase_3+0xa7>
  4010be:	c7 45 fc b9 01 00 00 	movl   $0x1b9,-0x4(%rbp)
  4010c5:	eb 17                	jmp    4010de <phase_3+0xa7>
  4010c7:	c7 45 fc 8f 00 00 00 	movl   $0x8f,-0x4(%rbp)
  4010ce:	eb 0e                	jmp    4010de <phase_3+0xa7>
  4010d0:	c7 45 fc 8a 00 00 00 	movl   $0x8a,-0x4(%rbp)
  4010d7:	eb 05                	jmp    4010de <phase_3+0xa7>
  4010d9:	e8 98 07 00 00       	callq  401876 <explode_bomb>
  4010de:	8b 45 f0             	mov    -0x10(%rbp),%eax
  4010e1:	39 45 fc             	cmp    %eax,-0x4(%rbp)
  4010e4:	74 05                	je     4010eb <phase_3+0xb4>
  4010e6:	e8 8b 07 00 00       	callq  401876 <explode_bomb>
  4010eb:	c9                   	leaveq 
  4010ec:	c3                   	retq   

00000000004010ed <func4>:
func4():
  4010ed:	55                   	push   %rbp
  4010ee:	48 89 e5             	mov    %rsp,%rbp
  4010f1:	48 83 ec 20          	sub    $0x20,%rsp
  4010f5:	89 7d ec             	mov    %edi,-0x14(%rbp)
  4010f8:	89 75 e8             	mov    %esi,-0x18(%rbp)
  4010fb:	89 55 e4             	mov    %edx,-0x1c(%rbp)
  4010fe:	8b 45 e4             	mov    -0x1c(%rbp),%eax
  401101:	2b 45 e8             	sub    -0x18(%rbp),%eax
  401104:	89 c2                	mov    %eax,%edx
  401106:	c1 ea 1f             	shr    $0x1f,%edx
  401109:	01 d0                	add    %edx,%eax
  40110b:	d1 f8                	sar    %eax
  40110d:	89 c2                	mov    %eax,%edx
  40110f:	8b 45 e8             	mov    -0x18(%rbp),%eax
  401112:	01 d0                	add    %edx,%eax
  401114:	89 45 fc             	mov    %eax,-0x4(%rbp)
  401117:	8b 45 fc             	mov    -0x4(%rbp),%eax
  40111a:	3b 45 ec             	cmp    -0x14(%rbp),%eax
  40111d:	7e 19                	jle    401138 <func4+0x4b>
  40111f:	8b 45 fc             	mov    -0x4(%rbp),%eax
  401122:	8d 50 ff             	lea    -0x1(%rax),%edx
  401125:	8b 4d e8             	mov    -0x18(%rbp),%ecx
  401128:	8b 45 ec             	mov    -0x14(%rbp),%eax
  40112b:	89 ce                	mov    %ecx,%esi
  40112d:	89 c7                	mov    %eax,%edi
  40112f:	e8 b9 ff ff ff       	callq  4010ed <func4>
  401134:	01 c0                	add    %eax,%eax
  401136:	eb 29                	jmp    401161 <func4+0x74>
  401138:	8b 45 fc             	mov    -0x4(%rbp),%eax
  40113b:	3b 45 ec             	cmp    -0x14(%rbp),%eax
  40113e:	7d 1c                	jge    40115c <func4+0x6f>
  401140:	8b 45 fc             	mov    -0x4(%rbp),%eax
  401143:	8d 48 01             	lea    0x1(%rax),%ecx
  401146:	8b 55 e4             	mov    -0x1c(%rbp),%edx
  401149:	8b 45 ec             	mov    -0x14(%rbp),%eax
  40114c:	89 ce                	mov    %ecx,%esi
  40114e:	89 c7                	mov    %eax,%edi
  401150:	e8 98 ff ff ff       	callq  4010ed <func4>
  401155:	01 c0                	add    %eax,%eax
  401157:	83 c0 01             	add    $0x1,%eax
  40115a:	eb 05                	jmp    401161 <func4+0x74>
  40115c:	b8 00 00 00 00       	mov    $0x0,%eax
  401161:	c9                   	leaveq 
  401162:	c3                   	retq   

0000000000401163 <phase_4>:
phase_4():
  401163:	55                   	push   %rbp
  401164:	48 89 e5             	mov    %rsp,%rbp
  401167:	48 83 ec 30          	sub    $0x30,%rsp
  40116b:	48 89 7d d8          	mov    %rdi,-0x28(%rbp)
  40116f:	48 8d 4d ec          	lea    -0x14(%rbp),%rcx
  401173:	48 8d 55 f0          	lea    -0x10(%rbp),%rdx
  401177:	48 8b 45 d8          	mov    -0x28(%rbp),%rax
  40117b:	be 06 29 40 00       	mov    $0x402906,%esi
  401180:	48 89 c7             	mov    %rax,%rdi
  401183:	b8 00 00 00 00       	mov    $0x0,%eax
  401188:	e8 e3 fa ff ff       	callq  400c70 <__isoc99_sscanf@plt>
  40118d:	89 45 fc             	mov    %eax,-0x4(%rbp)
  401190:	83 7d fc 02          	cmpl   $0x2,-0x4(%rbp)
  401194:	75 0f                	jne    4011a5 <phase_4+0x42>
  401196:	8b 45 f0             	mov    -0x10(%rbp),%eax
  401199:	85 c0                	test   %eax,%eax
  40119b:	78 08                	js     4011a5 <phase_4+0x42>
  40119d:	8b 45 f0             	mov    -0x10(%rbp),%eax
  4011a0:	83 f8 0e             	cmp    $0xe,%eax
  4011a3:	7e 05                	jle    4011aa <phase_4+0x47>
  4011a5:	e8 cc 06 00 00       	callq  401876 <explode_bomb>
  4011aa:	c7 45 f8 07 00 00 00 	movl   $0x7,-0x8(%rbp)
  4011b1:	8b 45 f0             	mov    -0x10(%rbp),%eax
  4011b4:	ba 0e 00 00 00       	mov    $0xe,%edx
  4011b9:	be 00 00 00 00       	mov    $0x0,%esi
  4011be:	89 c7                	mov    %eax,%edi
  4011c0:	e8 28 ff ff ff       	callq  4010ed <func4>
  4011c5:	89 45 f4             	mov    %eax,-0xc(%rbp)
  4011c8:	8b 45 f4             	mov    -0xc(%rbp),%eax
  4011cb:	3b 45 f8             	cmp    -0x8(%rbp),%eax
  4011ce:	75 08                	jne    4011d8 <phase_4+0x75>
  4011d0:	8b 45 ec             	mov    -0x14(%rbp),%eax
  4011d3:	3b 45 f8             	cmp    -0x8(%rbp),%eax
  4011d6:	74 05                	je     4011dd <phase_4+0x7a>
  4011d8:	e8 99 06 00 00       	callq  401876 <explode_bomb>
  4011dd:	c9                   	leaveq 
  4011de:	c3                   	retq   

00000000004011df <phase_5>:
phase_5():
  4011df:	55                   	push   %rbp
  4011e0:	48 89 e5             	mov    %rsp,%rbp
  4011e3:	48 83 ec 20          	sub    $0x20,%rsp
  4011e7:	48 89 7d e8          	mov    %rdi,-0x18(%rbp)
  4011eb:	48 8b 45 e8          	mov    -0x18(%rbp),%rax
  4011ef:	48 89 c7             	mov    %rax,%rdi
  4011f2:	e8 92 03 00 00       	callq  401589 <string_length>
  4011f7:	89 45 f8             	mov    %eax,-0x8(%rbp)
  4011fa:	83 7d f8 06          	cmpl   $0x6,-0x8(%rbp)
  4011fe:	74 05                	je     401205 <phase_5+0x26>
  401200:	e8 71 06 00 00       	callq  401876 <explode_bomb>
  401205:	c7 45 fc 00 00 00 00 	movl   $0x0,-0x4(%rbp)
  40120c:	eb 2c                	jmp    40123a <phase_5+0x5b>
  40120e:	8b 45 fc             	mov    -0x4(%rbp),%eax
  401211:	48 63 d0             	movslq %eax,%rdx
  401214:	48 8b 45 e8          	mov    -0x18(%rbp),%rax
  401218:	48 01 d0             	add    %rdx,%rax
  40121b:	0f b6 00             	movzbl (%rax),%eax
  40121e:	0f be c0             	movsbl %al,%eax
  401221:	83 e0 0f             	and    $0xf,%eax
  401224:	48 98                	cltq   
  401226:	0f b6 90 20 38 60 00 	movzbl 0x603820(%rax),%edx
  40122d:	8b 45 fc             	mov    -0x4(%rbp),%eax
  401230:	48 98                	cltq   
  401232:	88 54 05 f0          	mov    %dl,-0x10(%rbp,%rax,1)
  401236:	83 45 fc 01          	addl   $0x1,-0x4(%rbp)
  40123a:	83 7d fc 05          	cmpl   $0x5,-0x4(%rbp)
  40123e:	7e ce                	jle    40120e <phase_5+0x2f>
  401240:	c6 45 f6 00          	movb   $0x0,-0xa(%rbp)
  401244:	48 8d 45 f0          	lea    -0x10(%rbp),%rax
  401248:	be 50 29 40 00       	mov    $0x402950,%esi
  40124d:	48 89 c7             	mov    %rax,%rdi
  401250:	e8 66 03 00 00       	callq  4015bb <strings_not_equal>
  401255:	85 c0                	test   %eax,%eax
  401257:	74 05                	je     40125e <phase_5+0x7f>
  401259:	e8 18 06 00 00       	callq  401876 <explode_bomb>
  40125e:	c9                   	leaveq 
  40125f:	c3                   	retq   

0000000000401260 <phase_6>:
phase_6():
  401260:	55                   	push   %rbp
  401261:	48 89 e5             	mov    %rsp,%rbp
  401264:	48 83 ec 70          	sub    $0x70,%rsp
  401268:	48 89 7d 98          	mov    %rdi,-0x68(%rbp)
  40126c:	48 c7 45 e8 30 36 60 	movq   $0x603630,-0x18(%rbp)
  401273:	00 
  401274:	48 8d 55 d0          	lea    -0x30(%rbp),%rdx
  401278:	48 8b 45 98          	mov    -0x68(%rbp),%rax
  40127c:	48 89 d6             	mov    %rdx,%rsi
  40127f:	48 89 c7             	mov    %rax,%rdi
  401282:	e8 9a 02 00 00       	callq  401521 <read_six_numbers>
  401287:	c7 45 f4 00 00 00 00 	movl   $0x0,-0xc(%rbp)
  40128e:	eb 54                	jmp    4012e4 <phase_6+0x84>
  401290:	8b 45 f4             	mov    -0xc(%rbp),%eax
  401293:	48 98                	cltq   
  401295:	8b 44 85 d0          	mov    -0x30(%rbp,%rax,4),%eax
  401299:	85 c0                	test   %eax,%eax
  40129b:	7e 0e                	jle    4012ab <phase_6+0x4b>
  40129d:	8b 45 f4             	mov    -0xc(%rbp),%eax
  4012a0:	48 98                	cltq   
  4012a2:	8b 44 85 d0          	mov    -0x30(%rbp,%rax,4),%eax
  4012a6:	83 f8 06             	cmp    $0x6,%eax
  4012a9:	7e 05                	jle    4012b0 <phase_6+0x50>
  4012ab:	e8 c6 05 00 00       	callq  401876 <explode_bomb>
  4012b0:	8b 45 f4             	mov    -0xc(%rbp),%eax
  4012b3:	83 c0 01             	add    $0x1,%eax
  4012b6:	89 45 f0             	mov    %eax,-0x10(%rbp)
  4012b9:	eb 1f                	jmp    4012da <phase_6+0x7a>
  4012bb:	8b 45 f4             	mov    -0xc(%rbp),%eax
  4012be:	48 98                	cltq   
  4012c0:	8b 54 85 d0          	mov    -0x30(%rbp,%rax,4),%edx
  4012c4:	8b 45 f0             	mov    -0x10(%rbp),%eax
  4012c7:	48 98                	cltq   
  4012c9:	8b 44 85 d0          	mov    -0x30(%rbp,%rax,4),%eax
  4012cd:	39 c2                	cmp    %eax,%edx
  4012cf:	75 05                	jne    4012d6 <phase_6+0x76>
  4012d1:	e8 a0 05 00 00       	callq  401876 <explode_bomb>
  4012d6:	83 45 f0 01          	addl   $0x1,-0x10(%rbp)
  4012da:	83 7d f0 05          	cmpl   $0x5,-0x10(%rbp)
  4012de:	7e db                	jle    4012bb <phase_6+0x5b>
  4012e0:	83 45 f4 01          	addl   $0x1,-0xc(%rbp)
  4012e4:	83 7d f4 05          	cmpl   $0x5,-0xc(%rbp)
  4012e8:	7e a6                	jle    401290 <phase_6+0x30>
  4012ea:	c7 45 f4 00 00 00 00 	movl   $0x0,-0xc(%rbp)
  4012f1:	eb 41                	jmp    401334 <phase_6+0xd4>
  4012f3:	48 8b 45 e8          	mov    -0x18(%rbp),%rax
  4012f7:	48 89 45 f8          	mov    %rax,-0x8(%rbp)
  4012fb:	c7 45 f0 01 00 00 00 	movl   $0x1,-0x10(%rbp)
  401302:	eb 10                	jmp    401314 <phase_6+0xb4>
  401304:	48 8b 45 f8          	mov    -0x8(%rbp),%rax
  401308:	48 8b 40 08          	mov    0x8(%rax),%rax
  40130c:	48 89 45 f8          	mov    %rax,-0x8(%rbp)
  401310:	83 45 f0 01          	addl   $0x1,-0x10(%rbp)
  401314:	8b 45 f4             	mov    -0xc(%rbp),%eax
  401317:	48 98                	cltq   
  401319:	8b 44 85 d0          	mov    -0x30(%rbp,%rax,4),%eax
  40131d:	3b 45 f0             	cmp    -0x10(%rbp),%eax
  401320:	7f e2                	jg     401304 <phase_6+0xa4>
  401322:	8b 45 f4             	mov    -0xc(%rbp),%eax
  401325:	48 98                	cltq   
  401327:	48 8b 55 f8          	mov    -0x8(%rbp),%rdx
  40132b:	48 89 54 c5 a0       	mov    %rdx,-0x60(%rbp,%rax,8)
  401330:	83 45 f4 01          	addl   $0x1,-0xc(%rbp)
  401334:	83 7d f4 05          	cmpl   $0x5,-0xc(%rbp)
  401338:	7e b9                	jle    4012f3 <phase_6+0x93>
  40133a:	48 8b 45 a0          	mov    -0x60(%rbp),%rax
  40133e:	48 89 45 e8          	mov    %rax,-0x18(%rbp)
  401342:	48 8b 45 e8          	mov    -0x18(%rbp),%rax
  401346:	48 89 45 f8          	mov    %rax,-0x8(%rbp)
  40134a:	c7 45 f4 01 00 00 00 	movl   $0x1,-0xc(%rbp)
  401351:	eb 22                	jmp    401375 <phase_6+0x115>
  401353:	8b 45 f4             	mov    -0xc(%rbp),%eax
  401356:	48 98                	cltq   
  401358:	48 8b 54 c5 a0       	mov    -0x60(%rbp,%rax,8),%rdx
  40135d:	48 8b 45 f8          	mov    -0x8(%rbp),%rax
  401361:	48 89 50 08          	mov    %rdx,0x8(%rax)
  401365:	48 8b 45 f8          	mov    -0x8(%rbp),%rax
  401369:	48 8b 40 08          	mov    0x8(%rax),%rax
  40136d:	48 89 45 f8          	mov    %rax,-0x8(%rbp)
  401371:	83 45 f4 01          	addl   $0x1,-0xc(%rbp)
  401375:	83 7d f4 05          	cmpl   $0x5,-0xc(%rbp)
  401379:	7e d8                	jle    401353 <phase_6+0xf3>
  40137b:	48 8b 45 f8          	mov    -0x8(%rbp),%rax
  40137f:	48 c7 40 08 00 00 00 	movq   $0x0,0x8(%rax)
  401386:	00 
  401387:	48 8b 45 e8          	mov    -0x18(%rbp),%rax
  40138b:	48 89 45 f8          	mov    %rax,-0x8(%rbp)
  40138f:	c7 45 f4 00 00 00 00 	movl   $0x0,-0xc(%rbp)
  401396:	eb 29                	jmp    4013c1 <phase_6+0x161>
  401398:	48 8b 45 f8          	mov    -0x8(%rbp),%rax
  40139c:	8b 10                	mov    (%rax),%edx
  40139e:	48 8b 45 f8          	mov    -0x8(%rbp),%rax
  4013a2:	48 8b 40 08          	mov    0x8(%rax),%rax
  4013a6:	8b 00                	mov    (%rax),%eax
  4013a8:	39 c2                	cmp    %eax,%edx
  4013aa:	7d 05                	jge    4013b1 <phase_6+0x151>
  4013ac:	e8 c5 04 00 00       	callq  401876 <explode_bomb>
  4013b1:	48 8b 45 f8          	mov    -0x8(%rbp),%rax
  4013b5:	48 8b 40 08          	mov    0x8(%rax),%rax
  4013b9:	48 89 45 f8          	mov    %rax,-0x8(%rbp)
  4013bd:	83 45 f4 01          	addl   $0x1,-0xc(%rbp)
  4013c1:	83 7d f4 04          	cmpl   $0x4,-0xc(%rbp)
  4013c5:	7e d1                	jle    401398 <phase_6+0x138>
  4013c7:	c9                   	leaveq 
  4013c8:	c3                   	retq   

00000000004013c9 <fun7>:
fun7():
  4013c9:	55                   	push   %rbp
  4013ca:	48 89 e5             	mov    %rsp,%rbp
  4013cd:	48 83 ec 10          	sub    $0x10,%rsp
  4013d1:	48 89 7d f8          	mov    %rdi,-0x8(%rbp)
  4013d5:	89 75 f4             	mov    %esi,-0xc(%rbp)
  4013d8:	48 83 7d f8 00       	cmpq   $0x0,-0x8(%rbp)
  4013dd:	75 07                	jne    4013e6 <fun7+0x1d>
  4013df:	b8 ff ff ff ff       	mov    $0xffffffff,%eax
  4013e4:	eb 50                	jmp    401436 <fun7+0x6d>
  4013e6:	48 8b 45 f8          	mov    -0x8(%rbp),%rax
  4013ea:	8b 00                	mov    (%rax),%eax
  4013ec:	3b 45 f4             	cmp    -0xc(%rbp),%eax
  4013ef:	7e 19                	jle    40140a <fun7+0x41>
  4013f1:	48 8b 45 f8          	mov    -0x8(%rbp),%rax
  4013f5:	48 8b 40 08          	mov    0x8(%rax),%rax
  4013f9:	8b 55 f4             	mov    -0xc(%rbp),%edx
  4013fc:	89 d6                	mov    %edx,%esi
  4013fe:	48 89 c7             	mov    %rax,%rdi
  401401:	e8 c3 ff ff ff       	callq  4013c9 <fun7>
  401406:	01 c0                	add    %eax,%eax
  401408:	eb 2c                	jmp    401436 <fun7+0x6d>
  40140a:	48 8b 45 f8          	mov    -0x8(%rbp),%rax
  40140e:	8b 00                	mov    (%rax),%eax
  401410:	3b 45 f4             	cmp    -0xc(%rbp),%eax
  401413:	75 07                	jne    40141c <fun7+0x53>
  401415:	b8 00 00 00 00       	mov    $0x0,%eax
  40141a:	eb 1a                	jmp    401436 <fun7+0x6d>
  40141c:	48 8b 45 f8          	mov    -0x8(%rbp),%rax
  401420:	48 8b 40 10          	mov    0x10(%rax),%rax
  401424:	8b 55 f4             	mov    -0xc(%rbp),%edx
  401427:	89 d6                	mov    %edx,%esi
  401429:	48 89 c7             	mov    %rax,%rdi
  40142c:	e8 98 ff ff ff       	callq  4013c9 <fun7>
  401431:	01 c0                	add    %eax,%eax
  401433:	83 c0 01             	add    $0x1,%eax
  401436:	c9                   	leaveq 
  401437:	c3                   	retq   

0000000000401438 <secret_phase>:
secret_phase():
  401438:	55                   	push   %rbp
  401439:	48 89 e5             	mov    %rsp,%rbp
  40143c:	48 83 ec 10          	sub    $0x10,%rsp
  401440:	e8 cb 02 00 00       	callq  401710 <read_line>
  401445:	48 89 45 f8          	mov    %rax,-0x8(%rbp)
  401449:	48 8b 45 f8          	mov    -0x8(%rbp),%rax
  40144d:	48 89 c7             	mov    %rax,%rdi
  401450:	e8 5b f8 ff ff       	callq  400cb0 <atoi@plt>
  401455:	89 45 f4             	mov    %eax,-0xc(%rbp)
  401458:	83 7d f4 00          	cmpl   $0x0,-0xc(%rbp)
  40145c:	7e 09                	jle    401467 <secret_phase+0x2f>
  40145e:	81 7d f4 e9 03 00 00 	cmpl   $0x3e9,-0xc(%rbp)
  401465:	7e 05                	jle    40146c <secret_phase+0x34>
  401467:	e8 0a 04 00 00       	callq  401876 <explode_bomb>
  40146c:	8b 45 f4             	mov    -0xc(%rbp),%eax
  40146f:	89 c6                	mov    %eax,%esi
  401471:	bf 00 38 60 00       	mov    $0x603800,%edi
  401476:	e8 4e ff ff ff       	callq  4013c9 <fun7>
  40147b:	89 45 f0             	mov    %eax,-0x10(%rbp)
  40147e:	83 7d f0 05          	cmpl   $0x5,-0x10(%rbp)
  401482:	74 05                	je     401489 <secret_phase+0x51>
  401484:	e8 ed 03 00 00       	callq  401876 <explode_bomb>
  401489:	bf 58 29 40 00       	mov    $0x402958,%edi
  40148e:	e8 cd f6 ff ff       	callq  400b60 <puts@plt>
  401493:	e8 00 04 00 00       	callq  401898 <phase_defused>
  401498:	c9                   	leaveq 
  401499:	c3                   	retq   

000000000040149a <sig_handler>:
sig_handler():
  40149a:	55                   	push   %rbp
  40149b:	48 89 e5             	mov    %rsp,%rbp
  40149e:	48 83 ec 10          	sub    $0x10,%rsp
  4014a2:	89 7d fc             	mov    %edi,-0x4(%rbp)
  4014a5:	bf e0 29 40 00       	mov    $0x4029e0,%edi
  4014aa:	e8 b1 f6 ff ff       	callq  400b60 <puts@plt>
  4014af:	bf 03 00 00 00       	mov    $0x3,%edi
  4014b4:	e8 37 f8 ff ff       	callq  400cf0 <sleep@plt>
  4014b9:	bf 18 2a 40 00       	mov    $0x402a18,%edi
  4014be:	b8 00 00 00 00       	mov    $0x0,%eax
  4014c3:	e8 d8 f6 ff ff       	callq  400ba0 <printf@plt>
  4014c8:	48 8b 05 71 27 20 00 	mov    0x202771(%rip),%rax        # 603c40 <__TMC_END__>
  4014cf:	48 89 c7             	mov    %rax,%rdi
  4014d2:	e8 89 f7 ff ff       	callq  400c60 <fflush@plt>
  4014d7:	bf 01 00 00 00       	mov    $0x1,%edi
  4014dc:	e8 0f f8 ff ff       	callq  400cf0 <sleep@plt>
  4014e1:	bf 20 2a 40 00       	mov    $0x402a20,%edi
  4014e6:	e8 75 f6 ff ff       	callq  400b60 <puts@plt>
  4014eb:	bf 10 00 00 00       	mov    $0x10,%edi
  4014f0:	e8 db f7 ff ff       	callq  400cd0 <exit@plt>

00000000004014f5 <invalid_phase>:
invalid_phase():
  4014f5:	55                   	push   %rbp
  4014f6:	48 89 e5             	mov    %rsp,%rbp
  4014f9:	48 83 ec 10          	sub    $0x10,%rsp
  4014fd:	48 89 7d f8          	mov    %rdi,-0x8(%rbp)
  401501:	48 8b 45 f8          	mov    -0x8(%rbp),%rax
  401505:	48 89 c6             	mov    %rax,%rsi
  401508:	bf 28 2a 40 00       	mov    $0x402a28,%edi
  40150d:	b8 00 00 00 00       	mov    $0x0,%eax
  401512:	e8 89 f6 ff ff       	callq  400ba0 <printf@plt>
  401517:	bf 08 00 00 00       	mov    $0x8,%edi
  40151c:	e8 af f7 ff ff       	callq  400cd0 <exit@plt>

0000000000401521 <read_six_numbers>:
read_six_numbers():
  401521:	55                   	push   %rbp
  401522:	48 89 e5             	mov    %rsp,%rbp
  401525:	48 83 ec 20          	sub    $0x20,%rsp
  401529:	48 89 7d e8          	mov    %rdi,-0x18(%rbp)
  40152d:	48 89 75 e0          	mov    %rsi,-0x20(%rbp)
  401531:	48 8b 45 e0          	mov    -0x20(%rbp),%rax
  401535:	48 8d 78 14          	lea    0x14(%rax),%rdi
  401539:	48 8b 45 e0          	mov    -0x20(%rbp),%rax
  40153d:	48 8d 70 10          	lea    0x10(%rax),%rsi
  401541:	48 8b 45 e0          	mov    -0x20(%rbp),%rax
  401545:	4c 8d 48 0c          	lea    0xc(%rax),%r9
  401549:	48 8b 45 e0          	mov    -0x20(%rbp),%rax
  40154d:	4c 8d 40 08          	lea    0x8(%rax),%r8
  401551:	48 8b 45 e0          	mov    -0x20(%rbp),%rax
  401555:	48 8d 48 04          	lea    0x4(%rax),%rcx
  401559:	48 8b 55 e0          	mov    -0x20(%rbp),%rdx
  40155d:	48 8b 45 e8          	mov    -0x18(%rbp),%rax
  401561:	57                   	push   %rdi
  401562:	56                   	push   %rsi
  401563:	be 39 2a 40 00       	mov    $0x402a39,%esi
  401568:	48 89 c7             	mov    %rax,%rdi
  40156b:	b8 00 00 00 00       	mov    $0x0,%eax
  401570:	e8 fb f6 ff ff       	callq  400c70 <__isoc99_sscanf@plt>
  401575:	48 83 c4 10          	add    $0x10,%rsp
  401579:	89 45 fc             	mov    %eax,-0x4(%rbp)
  40157c:	83 7d fc 05          	cmpl   $0x5,-0x4(%rbp)
  401580:	7f 05                	jg     401587 <read_six_numbers+0x66>
  401582:	e8 ef 02 00 00       	callq  401876 <explode_bomb>
  401587:	c9                   	leaveq 
  401588:	c3                   	retq   

0000000000401589 <string_length>:
string_length():
  401589:	55                   	push   %rbp
  40158a:	48 89 e5             	mov    %rsp,%rbp
  40158d:	48 89 7d e8          	mov    %rdi,-0x18(%rbp)
  401591:	48 8b 45 e8          	mov    -0x18(%rbp),%rax
  401595:	48 89 45 f0          	mov    %rax,-0x10(%rbp)
  401599:	c7 45 fc 00 00 00 00 	movl   $0x0,-0x4(%rbp)
  4015a0:	eb 09                	jmp    4015ab <string_length+0x22>
  4015a2:	48 83 45 f0 01       	addq   $0x1,-0x10(%rbp)
  4015a7:	83 45 fc 01          	addl   $0x1,-0x4(%rbp)
  4015ab:	48 8b 45 f0          	mov    -0x10(%rbp),%rax
  4015af:	0f b6 00             	movzbl (%rax),%eax
  4015b2:	84 c0                	test   %al,%al
  4015b4:	75 ec                	jne    4015a2 <string_length+0x19>
  4015b6:	8b 45 fc             	mov    -0x4(%rbp),%eax
  4015b9:	5d                   	pop    %rbp
  4015ba:	c3                   	retq   

00000000004015bb <strings_not_equal>:
strings_not_equal():
  4015bb:	55                   	push   %rbp
  4015bc:	48 89 e5             	mov    %rsp,%rbp
  4015bf:	53                   	push   %rbx
  4015c0:	48 83 ec 20          	sub    $0x20,%rsp
  4015c4:	48 89 7d e0          	mov    %rdi,-0x20(%rbp)
  4015c8:	48 89 75 d8          	mov    %rsi,-0x28(%rbp)
  4015cc:	48 8b 45 e0          	mov    -0x20(%rbp),%rax
  4015d0:	48 89 c7             	mov    %rax,%rdi
  4015d3:	e8 b1 ff ff ff       	callq  401589 <string_length>
  4015d8:	89 c3                	mov    %eax,%ebx
  4015da:	48 8b 45 d8          	mov    -0x28(%rbp),%rax
  4015de:	48 89 c7             	mov    %rax,%rdi
  4015e1:	e8 a3 ff ff ff       	callq  401589 <string_length>
  4015e6:	39 c3                	cmp    %eax,%ebx
  4015e8:	74 07                	je     4015f1 <strings_not_equal+0x36>
  4015ea:	b8 01 00 00 00       	mov    $0x1,%eax
  4015ef:	eb 45                	jmp    401636 <strings_not_equal+0x7b>
  4015f1:	48 8b 45 e0          	mov    -0x20(%rbp),%rax
  4015f5:	48 89 45 f0          	mov    %rax,-0x10(%rbp)
  4015f9:	48 8b 45 d8          	mov    -0x28(%rbp),%rax
  4015fd:	48 89 45 e8          	mov    %rax,-0x18(%rbp)
  401601:	eb 23                	jmp    401626 <strings_not_equal+0x6b>
  401603:	48 8b 45 f0          	mov    -0x10(%rbp),%rax
  401607:	0f b6 10             	movzbl (%rax),%edx
  40160a:	48 8b 45 e8          	mov    -0x18(%rbp),%rax
  40160e:	0f b6 00             	movzbl (%rax),%eax
  401611:	38 c2                	cmp    %al,%dl
  401613:	74 07                	je     40161c <strings_not_equal+0x61>
  401615:	b8 01 00 00 00       	mov    $0x1,%eax
  40161a:	eb 1a                	jmp    401636 <strings_not_equal+0x7b>
  40161c:	48 83 45 f0 01       	addq   $0x1,-0x10(%rbp)
  401621:	48 83 45 e8 01       	addq   $0x1,-0x18(%rbp)
  401626:	48 8b 45 f0          	mov    -0x10(%rbp),%rax
  40162a:	0f b6 00             	movzbl (%rax),%eax
  40162d:	84 c0                	test   %al,%al
  40162f:	75 d2                	jne    401603 <strings_not_equal+0x48>
  401631:	b8 00 00 00 00       	mov    $0x0,%eax
  401636:	48 83 c4 20          	add    $0x20,%rsp
  40163a:	5b                   	pop    %rbx
  40163b:	5d                   	pop    %rbp
  40163c:	c3                   	retq   

000000000040163d <initialize_bomb>:
initialize_bomb():
  40163d:	55                   	push   %rbp
  40163e:	48 89 e5             	mov    %rsp,%rbp
  401641:	be 9a 14 40 00       	mov    $0x40149a,%esi
  401646:	bf 02 00 00 00       	mov    $0x2,%edi
  40164b:	e8 c0 f5 ff ff       	callq  400c10 <signal@plt>
  401650:	5d                   	pop    %rbp
  401651:	c3                   	retq   

0000000000401652 <initialize_bomb_solve>:
initialize_bomb_solve():
  401652:	55                   	push   %rbp
  401653:	48 89 e5             	mov    %rsp,%rbp
  401656:	5d                   	pop    %rbp
  401657:	c3                   	retq   

0000000000401658 <blank_line>:
blank_line():
  401658:	55                   	push   %rbp
  401659:	48 89 e5             	mov    %rsp,%rbp
  40165c:	48 83 ec 10          	sub    $0x10,%rsp
  401660:	48 89 7d f8          	mov    %rdi,-0x8(%rbp)
  401664:	eb 37                	jmp    40169d <blank_line+0x45>
  401666:	e8 95 f6 ff ff       	callq  400d00 <__ctype_b_loc@plt>
  40166b:	48 8b 08             	mov    (%rax),%rcx
  40166e:	48 8b 45 f8          	mov    -0x8(%rbp),%rax
  401672:	48 8d 50 01          	lea    0x1(%rax),%rdx
  401676:	48 89 55 f8          	mov    %rdx,-0x8(%rbp)
  40167a:	0f b6 00             	movzbl (%rax),%eax
  40167d:	48 0f be c0          	movsbq %al,%rax
  401681:	48 01 c0             	add    %rax,%rax
  401684:	48 01 c8             	add    %rcx,%rax
  401687:	0f b7 00             	movzwl (%rax),%eax
  40168a:	0f b7 c0             	movzwl %ax,%eax
  40168d:	25 00 20 00 00       	and    $0x2000,%eax
  401692:	85 c0                	test   %eax,%eax
  401694:	75 07                	jne    40169d <blank_line+0x45>
  401696:	b8 00 00 00 00       	mov    $0x0,%eax
  40169b:	eb 10                	jmp    4016ad <blank_line+0x55>
  40169d:	48 8b 45 f8          	mov    -0x8(%rbp),%rax
  4016a1:	0f b6 00             	movzbl (%rax),%eax
  4016a4:	84 c0                	test   %al,%al
  4016a6:	75 be                	jne    401666 <blank_line+0xe>
  4016a8:	b8 01 00 00 00       	mov    $0x1,%eax
  4016ad:	c9                   	leaveq 
  4016ae:	c3                   	retq   

00000000004016af <skip>:
skip():
  4016af:	55                   	push   %rbp
  4016b0:	48 89 e5             	mov    %rsp,%rbp
  4016b3:	48 83 ec 10          	sub    $0x10,%rsp
  4016b7:	48 8b 0d a2 25 20 00 	mov    0x2025a2(%rip),%rcx        # 603c60 <infile>
  4016be:	8b 05 98 25 20 00    	mov    0x202598(%rip),%eax        # 603c5c <num_input_strings>
  4016c4:	48 63 d0             	movslq %eax,%rdx
  4016c7:	48 89 d0             	mov    %rdx,%rax
  4016ca:	48 c1 e0 02          	shl    $0x2,%rax
  4016ce:	48 01 d0             	add    %rdx,%rax
  4016d1:	48 c1 e0 04          	shl    $0x4,%rax
  4016d5:	48 05 80 3c 60 00    	add    $0x603c80,%rax
  4016db:	48 89 ca             	mov    %rcx,%rdx
  4016de:	be 50 00 00 00       	mov    $0x50,%esi
  4016e3:	48 89 c7             	mov    %rax,%rdi
  4016e6:	e8 05 f5 ff ff       	callq  400bf0 <fgets@plt>
  4016eb:	48 89 45 f8          	mov    %rax,-0x8(%rbp)
  4016ef:	48 83 7d f8 00       	cmpq   $0x0,-0x8(%rbp)
  4016f4:	74 10                	je     401706 <skip+0x57>
  4016f6:	48 8b 45 f8          	mov    -0x8(%rbp),%rax
  4016fa:	48 89 c7             	mov    %rax,%rdi
  4016fd:	e8 56 ff ff ff       	callq  401658 <blank_line>
  401702:	85 c0                	test   %eax,%eax
  401704:	75 06                	jne    40170c <skip+0x5d>
  401706:	48 8b 45 f8          	mov    -0x8(%rbp),%rax
  40170a:	eb 02                	jmp    40170e <skip+0x5f>
  40170c:	eb a9                	jmp    4016b7 <skip+0x8>
  40170e:	c9                   	leaveq 
  40170f:	c3                   	retq   

0000000000401710 <read_line>:
read_line():
  401710:	55                   	push   %rbp
  401711:	48 89 e5             	mov    %rsp,%rbp
  401714:	48 83 ec 10          	sub    $0x10,%rsp
  401718:	b8 00 00 00 00       	mov    $0x0,%eax
  40171d:	e8 8d ff ff ff       	callq  4016af <skip>
  401722:	48 89 45 f8          	mov    %rax,-0x8(%rbp)
  401726:	48 83 7d f8 00       	cmpq   $0x0,-0x8(%rbp)
  40172b:	75 77                	jne    4017a4 <read_line+0x94>
  40172d:	48 8b 15 2c 25 20 00 	mov    0x20252c(%rip),%rdx        # 603c60 <infile>
  401734:	48 8b 05 0d 25 20 00 	mov    0x20250d(%rip),%rax        # 603c48 <stdin@@GLIBC_2.2.5>
  40173b:	48 39 c2             	cmp    %rax,%rdx
  40173e:	75 14                	jne    401754 <read_line+0x44>
  401740:	bf 4b 2a 40 00       	mov    $0x402a4b,%edi
  401745:	e8 16 f4 ff ff       	callq  400b60 <puts@plt>
  40174a:	bf 08 00 00 00       	mov    $0x8,%edi
  40174f:	e8 7c f5 ff ff       	callq  400cd0 <exit@plt>
  401754:	bf 69 2a 40 00       	mov    $0x402a69,%edi
  401759:	e8 d2 f3 ff ff       	callq  400b30 <getenv@plt>
  40175e:	48 85 c0             	test   %rax,%rax
  401761:	74 0a                	je     40176d <read_line+0x5d>
  401763:	bf 00 00 00 00       	mov    $0x0,%edi
  401768:	e8 63 f5 ff ff       	callq  400cd0 <exit@plt>
  40176d:	48 8b 05 d4 24 20 00 	mov    0x2024d4(%rip),%rax        # 603c48 <stdin@@GLIBC_2.2.5>
  401774:	48 89 05 e5 24 20 00 	mov    %rax,0x2024e5(%rip)        # 603c60 <infile>
  40177b:	b8 00 00 00 00       	mov    $0x0,%eax
  401780:	e8 2a ff ff ff       	callq  4016af <skip>
  401785:	48 89 45 f8          	mov    %rax,-0x8(%rbp)
  401789:	48 83 7d f8 00       	cmpq   $0x0,-0x8(%rbp)
  40178e:	75 14                	jne    4017a4 <read_line+0x94>
  401790:	bf 4b 2a 40 00       	mov    $0x402a4b,%edi
  401795:	e8 c6 f3 ff ff       	callq  400b60 <puts@plt>
  40179a:	bf 00 00 00 00       	mov    $0x0,%edi
  40179f:	e8 2c f5 ff ff       	callq  400cd0 <exit@plt>
  4017a4:	8b 05 b2 24 20 00    	mov    0x2024b2(%rip),%eax        # 603c5c <num_input_strings>
  4017aa:	48 63 d0             	movslq %eax,%rdx
  4017ad:	48 89 d0             	mov    %rdx,%rax
  4017b0:	48 c1 e0 02          	shl    $0x2,%rax
  4017b4:	48 01 d0             	add    %rdx,%rax
  4017b7:	48 c1 e0 04          	shl    $0x4,%rax
  4017bb:	48 05 80 3c 60 00    	add    $0x603c80,%rax
  4017c1:	48 89 c7             	mov    %rax,%rdi
  4017c4:	e8 b7 f3 ff ff       	callq  400b80 <strlen@plt>
  4017c9:	89 45 f4             	mov    %eax,-0xc(%rbp)
  4017cc:	83 7d f4 4e          	cmpl   $0x4e,-0xc(%rbp)
  4017d0:	7e 50                	jle    401822 <read_line+0x112>
  4017d2:	bf 74 2a 40 00       	mov    $0x402a74,%edi
  4017d7:	e8 84 f3 ff ff       	callq  400b60 <puts@plt>
  4017dc:	8b 05 7a 24 20 00    	mov    0x20247a(%rip),%eax        # 603c5c <num_input_strings>
  4017e2:	8d 50 01             	lea    0x1(%rax),%edx
  4017e5:	89 15 71 24 20 00    	mov    %edx,0x202471(%rip)        # 603c5c <num_input_strings>
  4017eb:	48 63 d0             	movslq %eax,%rdx
  4017ee:	48 89 d0             	mov    %rdx,%rax
  4017f1:	48 c1 e0 02          	shl    $0x2,%rax
  4017f5:	48 01 d0             	add    %rdx,%rax
  4017f8:	48 c1 e0 04          	shl    $0x4,%rax
  4017fc:	48 05 80 3c 60 00    	add    $0x603c80,%rax
  401802:	48 be 2a 2a 2a 74 72 	movabs $0x636e7572742a2a2a,%rsi
  401809:	75 6e 63 
  40180c:	48 89 30             	mov    %rsi,(%rax)
  40180f:	48 b9 61 74 65 64 2a 	movabs $0x2a2a2a64657461,%rcx
  401816:	2a 2a 00 
  401819:	48 89 48 08          	mov    %rcx,0x8(%rax)
  40181d:	e8 54 00 00 00       	callq  401876 <explode_bomb>
  401822:	8b 05 34 24 20 00    	mov    0x202434(%rip),%eax        # 603c5c <num_input_strings>
  401828:	8b 55 f4             	mov    -0xc(%rbp),%edx
  40182b:	83 ea 01             	sub    $0x1,%edx
  40182e:	48 63 ca             	movslq %edx,%rcx
  401831:	48 63 d0             	movslq %eax,%rdx
  401834:	48 89 d0             	mov    %rdx,%rax
  401837:	48 c1 e0 02          	shl    $0x2,%rax
  40183b:	48 01 d0             	add    %rdx,%rax
  40183e:	48 c1 e0 04          	shl    $0x4,%rax
  401842:	48 01 c8             	add    %rcx,%rax
  401845:	48 05 80 3c 60 00    	add    $0x603c80,%rax
  40184b:	c6 00 00             	movb   $0x0,(%rax)
  40184e:	8b 05 08 24 20 00    	mov    0x202408(%rip),%eax        # 603c5c <num_input_strings>
  401854:	8d 50 01             	lea    0x1(%rax),%edx
  401857:	89 15 ff 23 20 00    	mov    %edx,0x2023ff(%rip)        # 603c5c <num_input_strings>
  40185d:	48 63 d0             	movslq %eax,%rdx
  401860:	48 89 d0             	mov    %rdx,%rax
  401863:	48 c1 e0 02          	shl    $0x2,%rax
  401867:	48 01 d0             	add    %rdx,%rax
  40186a:	48 c1 e0 04          	shl    $0x4,%rax
  40186e:	48 05 80 3c 60 00    	add    $0x603c80,%rax
  401874:	c9                   	leaveq 
  401875:	c3                   	retq   

0000000000401876 <explode_bomb>:
explode_bomb():
  401876:	55                   	push   %rbp
  401877:	48 89 e5             	mov    %rsp,%rbp
  40187a:	bf 8f 2a 40 00       	mov    $0x402a8f,%edi
  40187f:	e8 dc f2 ff ff       	callq  400b60 <puts@plt>
  401884:	bf 98 2a 40 00       	mov    $0x402a98,%edi
  401889:	e8 d2 f2 ff ff       	callq  400b60 <puts@plt>
  40188e:	bf 08 00 00 00       	mov    $0x8,%edi
  401893:	e8 38 f4 ff ff       	callq  400cd0 <exit@plt>

0000000000401898 <phase_defused>:
phase_defused():
  401898:	55                   	push   %rbp
  401899:	48 89 e5             	mov    %rsp,%rbp
  40189c:	48 83 ec 70          	sub    $0x70,%rsp
  4018a0:	8b 05 b6 23 20 00    	mov    0x2023b6(%rip),%eax        # 603c5c <num_input_strings>
  4018a6:	83 f8 06             	cmp    $0x6,%eax
  4018a9:	75 6f                	jne    40191a <phase_defused+0x82>
  4018ab:	48 8d 4d a0          	lea    -0x60(%rbp),%rcx
  4018af:	48 8d 55 98          	lea    -0x68(%rbp),%rdx
  4018b3:	48 8d 45 9c          	lea    -0x64(%rbp),%rax
  4018b7:	49 89 c8             	mov    %rcx,%r8
  4018ba:	48 89 d1             	mov    %rdx,%rcx
  4018bd:	48 89 c2             	mov    %rax,%rdx
  4018c0:	be af 2a 40 00       	mov    $0x402aaf,%esi
  4018c5:	bf 70 3d 60 00       	mov    $0x603d70,%edi
  4018ca:	b8 00 00 00 00       	mov    $0x0,%eax
  4018cf:	e8 9c f3 ff ff       	callq  400c70 <__isoc99_sscanf@plt>
  4018d4:	89 45 fc             	mov    %eax,-0x4(%rbp)
  4018d7:	83 7d fc 03          	cmpl   $0x3,-0x4(%rbp)
  4018db:	75 33                	jne    401910 <phase_defused+0x78>
  4018dd:	48 8d 45 a0          	lea    -0x60(%rbp),%rax
  4018e1:	be b8 2a 40 00       	mov    $0x402ab8,%esi
  4018e6:	48 89 c7             	mov    %rax,%rdi
  4018e9:	e8 cd fc ff ff       	callq  4015bb <strings_not_equal>
  4018ee:	85 c0                	test   %eax,%eax
  4018f0:	75 1e                	jne    401910 <phase_defused+0x78>
  4018f2:	bf c0 2a 40 00       	mov    $0x402ac0,%edi
  4018f7:	e8 64 f2 ff ff       	callq  400b60 <puts@plt>
  4018fc:	bf e8 2a 40 00       	mov    $0x402ae8,%edi
  401901:	e8 5a f2 ff ff       	callq  400b60 <puts@plt>
  401906:	b8 00 00 00 00       	mov    $0x0,%eax
  40190b:	e8 28 fb ff ff       	callq  401438 <secret_phase>
  401910:	bf 20 2b 40 00       	mov    $0x402b20,%edi
  401915:	e8 46 f2 ff ff       	callq  400b60 <puts@plt>
  40191a:	c9                   	leaveq 
  40191b:	c3                   	retq   

000000000040191c <sigalrm_handler>:
sigalrm_handler():
  40191c:	55                   	push   %rbp
  40191d:	48 89 e5             	mov    %rsp,%rbp
  401920:	48 83 ec 10          	sub    $0x10,%rsp
  401924:	89 7d fc             	mov    %edi,-0x4(%rbp)
  401927:	48 8b 05 22 23 20 00 	mov    0x202322(%rip),%rax        # 603c50 <stderr@@GLIBC_2.2.5>
  40192e:	ba 00 00 00 00       	mov    $0x0,%edx
  401933:	be 50 2b 40 00       	mov    $0x402b50,%esi
  401938:	48 89 c7             	mov    %rax,%rdi
  40193b:	b8 00 00 00 00       	mov    $0x0,%eax
  401940:	e8 eb f2 ff ff       	callq  400c30 <fprintf@plt>
  401945:	bf 01 00 00 00       	mov    $0x1,%edi
  40194a:	e8 81 f3 ff ff       	callq  400cd0 <exit@plt>

000000000040194f <rio_readinitb>:
rio_readinitb():
  40194f:	55                   	push   %rbp
  401950:	48 89 e5             	mov    %rsp,%rbp
  401953:	48 89 7d f8          	mov    %rdi,-0x8(%rbp)
  401957:	89 75 f4             	mov    %esi,-0xc(%rbp)
  40195a:	48 8b 45 f8          	mov    -0x8(%rbp),%rax
  40195e:	8b 55 f4             	mov    -0xc(%rbp),%edx
  401961:	89 10                	mov    %edx,(%rax)
  401963:	48 8b 45 f8          	mov    -0x8(%rbp),%rax
  401967:	c7 40 04 00 00 00 00 	movl   $0x0,0x4(%rax)
  40196e:	48 8b 45 f8          	mov    -0x8(%rbp),%rax
  401972:	48 8d 50 10          	lea    0x10(%rax),%rdx
  401976:	48 8b 45 f8          	mov    -0x8(%rbp),%rax
  40197a:	48 89 50 08          	mov    %rdx,0x8(%rax)
  40197e:	5d                   	pop    %rbp
  40197f:	c3                   	retq   

0000000000401980 <rio_read>:
rio_read():
  401980:	55                   	push   %rbp
  401981:	48 89 e5             	mov    %rsp,%rbp
  401984:	48 83 ec 30          	sub    $0x30,%rsp
  401988:	48 89 7d e8          	mov    %rdi,-0x18(%rbp)
  40198c:	48 89 75 e0          	mov    %rsi,-0x20(%rbp)
  401990:	48 89 55 d8          	mov    %rdx,-0x28(%rbp)
  401994:	eb 6e                	jmp    401a04 <rio_read+0x84>
  401996:	48 8b 45 e8          	mov    -0x18(%rbp),%rax
  40199a:	48 8d 48 10          	lea    0x10(%rax),%rcx
  40199e:	48 8b 45 e8          	mov    -0x18(%rbp),%rax
  4019a2:	8b 00                	mov    (%rax),%eax
  4019a4:	ba 00 20 00 00       	mov    $0x2000,%edx
  4019a9:	48 89 ce             	mov    %rcx,%rsi
  4019ac:	89 c7                	mov    %eax,%edi
  4019ae:	e8 1d f2 ff ff       	callq  400bd0 <read@plt>
  4019b3:	89 c2                	mov    %eax,%edx
  4019b5:	48 8b 45 e8          	mov    -0x18(%rbp),%rax
  4019b9:	89 50 04             	mov    %edx,0x4(%rax)
  4019bc:	48 8b 45 e8          	mov    -0x18(%rbp),%rax
  4019c0:	8b 40 04             	mov    0x4(%rax),%eax
  4019c3:	85 c0                	test   %eax,%eax
  4019c5:	79 18                	jns    4019df <rio_read+0x5f>
  4019c7:	e8 74 f1 ff ff       	callq  400b40 <__errno_location@plt>
  4019cc:	8b 00                	mov    (%rax),%eax
  4019ce:	83 f8 04             	cmp    $0x4,%eax
  4019d1:	74 31                	je     401a04 <rio_read+0x84>
  4019d3:	48 c7 c0 ff ff ff ff 	mov    $0xffffffffffffffff,%rax
  4019da:	e9 9d 00 00 00       	jmpq   401a7c <rio_read+0xfc>
  4019df:	48 8b 45 e8          	mov    -0x18(%rbp),%rax
  4019e3:	8b 40 04             	mov    0x4(%rax),%eax
  4019e6:	85 c0                	test   %eax,%eax
  4019e8:	75 0a                	jne    4019f4 <rio_read+0x74>
  4019ea:	b8 00 00 00 00       	mov    $0x0,%eax
  4019ef:	e9 88 00 00 00       	jmpq   401a7c <rio_read+0xfc>
  4019f4:	48 8b 45 e8          	mov    -0x18(%rbp),%rax
  4019f8:	48 8d 50 10          	lea    0x10(%rax),%rdx
  4019fc:	48 8b 45 e8          	mov    -0x18(%rbp),%rax
  401a00:	48 89 50 08          	mov    %rdx,0x8(%rax)
  401a04:	48 8b 45 e8          	mov    -0x18(%rbp),%rax
  401a08:	8b 40 04             	mov    0x4(%rax),%eax
  401a0b:	85 c0                	test   %eax,%eax
  401a0d:	7e 87                	jle    401996 <rio_read+0x16>
  401a0f:	48 8b 45 d8          	mov    -0x28(%rbp),%rax
  401a13:	89 45 fc             	mov    %eax,-0x4(%rbp)
  401a16:	48 8b 45 e8          	mov    -0x18(%rbp),%rax
  401a1a:	8b 40 04             	mov    0x4(%rax),%eax
  401a1d:	48 98                	cltq   
  401a1f:	48 3b 45 d8          	cmp    -0x28(%rbp),%rax
  401a23:	73 0a                	jae    401a2f <rio_read+0xaf>
  401a25:	48 8b 45 e8          	mov    -0x18(%rbp),%rax
  401a29:	8b 40 04             	mov    0x4(%rax),%eax
  401a2c:	89 45 fc             	mov    %eax,-0x4(%rbp)
  401a2f:	8b 45 fc             	mov    -0x4(%rbp),%eax
  401a32:	48 63 d0             	movslq %eax,%rdx
  401a35:	48 8b 45 e8          	mov    -0x18(%rbp),%rax
  401a39:	48 8b 48 08          	mov    0x8(%rax),%rcx
  401a3d:	48 8b 45 e0          	mov    -0x20(%rbp),%rax
  401a41:	48 89 ce             	mov    %rcx,%rsi
  401a44:	48 89 c7             	mov    %rax,%rdi
  401a47:	e8 04 f2 ff ff       	callq  400c50 <memcpy@plt>
  401a4c:	48 8b 45 e8          	mov    -0x18(%rbp),%rax
  401a50:	48 8b 50 08          	mov    0x8(%rax),%rdx
  401a54:	8b 45 fc             	mov    -0x4(%rbp),%eax
  401a57:	48 98                	cltq   
  401a59:	48 01 c2             	add    %rax,%rdx
  401a5c:	48 8b 45 e8          	mov    -0x18(%rbp),%rax
  401a60:	48 89 50 08          	mov    %rdx,0x8(%rax)
  401a64:	48 8b 45 e8          	mov    -0x18(%rbp),%rax
  401a68:	8b 40 04             	mov    0x4(%rax),%eax
  401a6b:	2b 45 fc             	sub    -0x4(%rbp),%eax
  401a6e:	89 c2                	mov    %eax,%edx
  401a70:	48 8b 45 e8          	mov    -0x18(%rbp),%rax
  401a74:	89 50 04             	mov    %edx,0x4(%rax)
  401a77:	8b 45 fc             	mov    -0x4(%rbp),%eax
  401a7a:	48 98                	cltq   
  401a7c:	c9                   	leaveq 
  401a7d:	c3                   	retq   

0000000000401a7e <rio_readlineb>:
rio_readlineb():
  401a7e:	55                   	push   %rbp
  401a7f:	48 89 e5             	mov    %rsp,%rbp
  401a82:	48 83 ec 40          	sub    $0x40,%rsp
  401a86:	48 89 7d d8          	mov    %rdi,-0x28(%rbp)
  401a8a:	48 89 75 d0          	mov    %rsi,-0x30(%rbp)
  401a8e:	48 89 55 c8          	mov    %rdx,-0x38(%rbp)
  401a92:	48 8b 45 d0          	mov    -0x30(%rbp),%rax
  401a96:	48 89 45 f0          	mov    %rax,-0x10(%rbp)
  401a9a:	c7 45 fc 01 00 00 00 	movl   $0x1,-0x4(%rbp)
  401aa1:	eb 5f                	jmp    401b02 <rio_readlineb+0x84>
  401aa3:	48 8d 4d eb          	lea    -0x15(%rbp),%rcx
  401aa7:	48 8b 45 d8          	mov    -0x28(%rbp),%rax
  401aab:	ba 01 00 00 00       	mov    $0x1,%edx
  401ab0:	48 89 ce             	mov    %rcx,%rsi
  401ab3:	48 89 c7             	mov    %rax,%rdi
  401ab6:	e8 c5 fe ff ff       	callq  401980 <rio_read>
  401abb:	89 45 ec             	mov    %eax,-0x14(%rbp)
  401abe:	83 7d ec 01          	cmpl   $0x1,-0x14(%rbp)
  401ac2:	75 1c                	jne    401ae0 <rio_readlineb+0x62>
  401ac4:	48 8b 45 f0          	mov    -0x10(%rbp),%rax
  401ac8:	48 8d 50 01          	lea    0x1(%rax),%rdx
  401acc:	48 89 55 f0          	mov    %rdx,-0x10(%rbp)
  401ad0:	0f b6 55 eb          	movzbl -0x15(%rbp),%edx
  401ad4:	88 10                	mov    %dl,(%rax)
  401ad6:	0f b6 45 eb          	movzbl -0x15(%rbp),%eax
  401ada:	3c 0a                	cmp    $0xa,%al
  401adc:	75 20                	jne    401afe <rio_readlineb+0x80>
  401ade:	eb 2d                	jmp    401b0d <rio_readlineb+0x8f>
  401ae0:	83 7d ec 00          	cmpl   $0x0,-0x14(%rbp)
  401ae4:	75 0f                	jne    401af5 <rio_readlineb+0x77>
  401ae6:	83 7d fc 01          	cmpl   $0x1,-0x4(%rbp)
  401aea:	75 07                	jne    401af3 <rio_readlineb+0x75>
  401aec:	b8 00 00 00 00       	mov    $0x0,%eax
  401af1:	eb 26                	jmp    401b19 <rio_readlineb+0x9b>
  401af3:	eb 18                	jmp    401b0d <rio_readlineb+0x8f>
  401af5:	48 c7 c0 ff ff ff ff 	mov    $0xffffffffffffffff,%rax
  401afc:	eb 1b                	jmp    401b19 <rio_readlineb+0x9b>
  401afe:	83 45 fc 01          	addl   $0x1,-0x4(%rbp)
  401b02:	8b 45 fc             	mov    -0x4(%rbp),%eax
  401b05:	48 98                	cltq   
  401b07:	48 3b 45 c8          	cmp    -0x38(%rbp),%rax
  401b0b:	72 96                	jb     401aa3 <rio_readlineb+0x25>
  401b0d:	48 8b 45 f0          	mov    -0x10(%rbp),%rax
  401b11:	c6 00 00             	movb   $0x0,(%rax)
  401b14:	8b 45 fc             	mov    -0x4(%rbp),%eax
  401b17:	48 98                	cltq   
  401b19:	c9                   	leaveq 
  401b1a:	c3                   	retq   

0000000000401b1b <rio_writen>:
rio_writen():
  401b1b:	55                   	push   %rbp
  401b1c:	48 89 e5             	mov    %rsp,%rbp
  401b1f:	48 83 ec 40          	sub    $0x40,%rsp
  401b23:	89 7d dc             	mov    %edi,-0x24(%rbp)
  401b26:	48 89 75 d0          	mov    %rsi,-0x30(%rbp)
  401b2a:	48 89 55 c8          	mov    %rdx,-0x38(%rbp)
  401b2e:	48 8b 45 c8          	mov    -0x38(%rbp),%rax
  401b32:	48 89 45 f8          	mov    %rax,-0x8(%rbp)
  401b36:	48 8b 45 d0          	mov    -0x30(%rbp),%rax
  401b3a:	48 89 45 e8          	mov    %rax,-0x18(%rbp)
  401b3e:	eb 4f                	jmp    401b8f <rio_writen+0x74>
  401b40:	48 8b 55 f8          	mov    -0x8(%rbp),%rdx
  401b44:	48 8b 4d e8          	mov    -0x18(%rbp),%rcx
  401b48:	8b 45 dc             	mov    -0x24(%rbp),%eax
  401b4b:	48 89 ce             	mov    %rcx,%rsi
  401b4e:	89 c7                	mov    %eax,%edi
  401b50:	e8 1b f0 ff ff       	callq  400b70 <write@plt>
  401b55:	48 89 45 f0          	mov    %rax,-0x10(%rbp)
  401b59:	48 83 7d f0 00       	cmpq   $0x0,-0x10(%rbp)
  401b5e:	7f 1f                	jg     401b7f <rio_writen+0x64>
  401b60:	e8 db ef ff ff       	callq  400b40 <__errno_location@plt>
  401b65:	8b 00                	mov    (%rax),%eax
  401b67:	83 f8 04             	cmp    $0x4,%eax
  401b6a:	75 0a                	jne    401b76 <rio_writen+0x5b>
  401b6c:	48 c7 45 f0 00 00 00 	movq   $0x0,-0x10(%rbp)
  401b73:	00 
  401b74:	eb 09                	jmp    401b7f <rio_writen+0x64>
  401b76:	48 c7 c0 ff ff ff ff 	mov    $0xffffffffffffffff,%rax
  401b7d:	eb 1b                	jmp    401b9a <rio_writen+0x7f>
  401b7f:	48 8b 45 f0          	mov    -0x10(%rbp),%rax
  401b83:	48 29 45 f8          	sub    %rax,-0x8(%rbp)
  401b87:	48 8b 45 f0          	mov    -0x10(%rbp),%rax
  401b8b:	48 01 45 e8          	add    %rax,-0x18(%rbp)
  401b8f:	48 83 7d f8 00       	cmpq   $0x0,-0x8(%rbp)
  401b94:	75 aa                	jne    401b40 <rio_writen+0x25>
  401b96:	48 8b 45 c8          	mov    -0x38(%rbp),%rax
  401b9a:	c9                   	leaveq 
  401b9b:	c3                   	retq   

0000000000401b9c <urlencode>:
urlencode():
  401b9c:	55                   	push   %rbp
  401b9d:	48 89 e5             	mov    %rsp,%rbp
  401ba0:	48 83 ec 20          	sub    $0x20,%rsp
  401ba4:	48 89 7d e8          	mov    %rdi,-0x18(%rbp)
  401ba8:	48 89 75 e0          	mov    %rsi,-0x20(%rbp)
  401bac:	48 8b 45 e8          	mov    -0x18(%rbp),%rax
  401bb0:	48 89 c7             	mov    %rax,%rdi
  401bb3:	e8 c8 ef ff ff       	callq  400b80 <strlen@plt>
  401bb8:	89 45 fc             	mov    %eax,-0x4(%rbp)
  401bbb:	e9 2c 01 00 00       	jmpq   401cec <urlencode+0x150>
  401bc0:	48 8b 45 e8          	mov    -0x18(%rbp),%rax
  401bc4:	0f b6 00             	movzbl (%rax),%eax
  401bc7:	3c 2a                	cmp    $0x2a,%al
  401bc9:	74 63                	je     401c2e <urlencode+0x92>
  401bcb:	48 8b 45 e8          	mov    -0x18(%rbp),%rax
  401bcf:	0f b6 00             	movzbl (%rax),%eax
  401bd2:	3c 2d                	cmp    $0x2d,%al
  401bd4:	74 58                	je     401c2e <urlencode+0x92>
  401bd6:	48 8b 45 e8          	mov    -0x18(%rbp),%rax
  401bda:	0f b6 00             	movzbl (%rax),%eax
  401bdd:	3c 2e                	cmp    $0x2e,%al
  401bdf:	74 4d                	je     401c2e <urlencode+0x92>
  401be1:	48 8b 45 e8          	mov    -0x18(%rbp),%rax
  401be5:	0f b6 00             	movzbl (%rax),%eax
  401be8:	3c 5f                	cmp    $0x5f,%al
  401bea:	74 42                	je     401c2e <urlencode+0x92>
  401bec:	48 8b 45 e8          	mov    -0x18(%rbp),%rax
  401bf0:	0f b6 00             	movzbl (%rax),%eax
  401bf3:	3c 2f                	cmp    $0x2f,%al
  401bf5:	76 0b                	jbe    401c02 <urlencode+0x66>
  401bf7:	48 8b 45 e8          	mov    -0x18(%rbp),%rax
  401bfb:	0f b6 00             	movzbl (%rax),%eax
  401bfe:	3c 39                	cmp    $0x39,%al
  401c00:	76 2c                	jbe    401c2e <urlencode+0x92>
  401c02:	48 8b 45 e8          	mov    -0x18(%rbp),%rax
  401c06:	0f b6 00             	movzbl (%rax),%eax
  401c09:	3c 40                	cmp    $0x40,%al
  401c0b:	76 0b                	jbe    401c18 <urlencode+0x7c>
  401c0d:	48 8b 45 e8          	mov    -0x18(%rbp),%rax
  401c11:	0f b6 00             	movzbl (%rax),%eax
  401c14:	3c 5a                	cmp    $0x5a,%al
  401c16:	76 16                	jbe    401c2e <urlencode+0x92>
  401c18:	48 8b 45 e8          	mov    -0x18(%rbp),%rax
  401c1c:	0f b6 00             	movzbl (%rax),%eax
  401c1f:	3c 60                	cmp    $0x60,%al
  401c21:	76 25                	jbe    401c48 <urlencode+0xac>
  401c23:	48 8b 45 e8          	mov    -0x18(%rbp),%rax
  401c27:	0f b6 00             	movzbl (%rax),%eax
  401c2a:	3c 7a                	cmp    $0x7a,%al
  401c2c:	77 1a                	ja     401c48 <urlencode+0xac>
  401c2e:	48 8b 45 e0          	mov    -0x20(%rbp),%rax
  401c32:	48 8d 50 01          	lea    0x1(%rax),%rdx
  401c36:	48 89 55 e0          	mov    %rdx,-0x20(%rbp)
  401c3a:	48 8b 55 e8          	mov    -0x18(%rbp),%rdx
  401c3e:	0f b6 12             	movzbl (%rdx),%edx
  401c41:	88 10                	mov    %dl,(%rax)
  401c43:	e9 9f 00 00 00       	jmpq   401ce7 <urlencode+0x14b>
  401c48:	48 8b 45 e8          	mov    -0x18(%rbp),%rax
  401c4c:	0f b6 00             	movzbl (%rax),%eax
  401c4f:	3c 20                	cmp    $0x20,%al
  401c51:	75 14                	jne    401c67 <urlencode+0xcb>
  401c53:	48 8b 45 e0          	mov    -0x20(%rbp),%rax
  401c57:	48 8d 50 01          	lea    0x1(%rax),%rdx
  401c5b:	48 89 55 e0          	mov    %rdx,-0x20(%rbp)
  401c5f:	c6 00 2b             	movb   $0x2b,(%rax)
  401c62:	e9 80 00 00 00       	jmpq   401ce7 <urlencode+0x14b>
  401c67:	48 8b 45 e8          	mov    -0x18(%rbp),%rax
  401c6b:	0f b6 00             	movzbl (%rax),%eax
  401c6e:	3c 1f                	cmp    $0x1f,%al
  401c70:	76 0b                	jbe    401c7d <urlencode+0xe1>
  401c72:	48 8b 45 e8          	mov    -0x18(%rbp),%rax
  401c76:	0f b6 00             	movzbl (%rax),%eax
  401c79:	84 c0                	test   %al,%al
  401c7b:	79 0b                	jns    401c88 <urlencode+0xec>
  401c7d:	48 8b 45 e8          	mov    -0x18(%rbp),%rax
  401c81:	0f b6 00             	movzbl (%rax),%eax
  401c84:	3c 09                	cmp    $0x9,%al
  401c86:	75 58                	jne    401ce0 <urlencode+0x144>
  401c88:	48 8b 45 e8          	mov    -0x18(%rbp),%rax
  401c8c:	0f b6 00             	movzbl (%rax),%eax
  401c8f:	0f b6 d0             	movzbl %al,%edx
  401c92:	48 8d 45 f0          	lea    -0x10(%rbp),%rax
  401c96:	be 74 2b 40 00       	mov    $0x402b74,%esi
  401c9b:	48 89 c7             	mov    %rax,%rdi
  401c9e:	b8 00 00 00 00       	mov    $0x0,%eax
  401ca3:	e8 18 f0 ff ff       	callq  400cc0 <sprintf@plt>
  401ca8:	48 8b 45 e0          	mov    -0x20(%rbp),%rax
  401cac:	48 8d 50 01          	lea    0x1(%rax),%rdx
  401cb0:	48 89 55 e0          	mov    %rdx,-0x20(%rbp)
  401cb4:	0f b6 55 f0          	movzbl -0x10(%rbp),%edx
  401cb8:	88 10                	mov    %dl,(%rax)
  401cba:	48 8b 45 e0          	mov    -0x20(%rbp),%rax
  401cbe:	48 8d 50 01          	lea    0x1(%rax),%rdx
  401cc2:	48 89 55 e0          	mov    %rdx,-0x20(%rbp)
  401cc6:	0f b6 55 f1          	movzbl -0xf(%rbp),%edx
  401cca:	88 10                	mov    %dl,(%rax)
  401ccc:	48 8b 45 e0          	mov    -0x20(%rbp),%rax
  401cd0:	48 8d 50 01          	lea    0x1(%rax),%rdx
  401cd4:	48 89 55 e0          	mov    %rdx,-0x20(%rbp)
  401cd8:	0f b6 55 f2          	movzbl -0xe(%rbp),%edx
  401cdc:	88 10                	mov    %dl,(%rax)
  401cde:	eb 07                	jmp    401ce7 <urlencode+0x14b>
  401ce0:	b8 ff ff ff ff       	mov    $0xffffffff,%eax
  401ce5:	eb 1b                	jmp    401d02 <urlencode+0x166>
  401ce7:	48 83 45 e8 01       	addq   $0x1,-0x18(%rbp)
  401cec:	8b 45 fc             	mov    -0x4(%rbp),%eax
  401cef:	8d 50 ff             	lea    -0x1(%rax),%edx
  401cf2:	89 55 fc             	mov    %edx,-0x4(%rbp)
  401cf5:	85 c0                	test   %eax,%eax
  401cf7:	0f 85 c3 fe ff ff    	jne    401bc0 <urlencode+0x24>
  401cfd:	b8 00 00 00 00       	mov    $0x0,%eax
  401d02:	c9                   	leaveq 
  401d03:	c3                   	retq   

0000000000401d04 <submitr>:
submitr():
  401d04:	55                   	push   %rbp
  401d05:	48 89 e5             	mov    %rsp,%rbp
  401d08:	53                   	push   %rbx
  401d09:	48 81 ec 88 a0 00 00 	sub    $0xa088,%rsp
  401d10:	48 89 bd 98 5f ff ff 	mov    %rdi,-0xa068(%rbp)
  401d17:	89 b5 94 5f ff ff    	mov    %esi,-0xa06c(%rbp)
  401d1d:	48 89 95 88 5f ff ff 	mov    %rdx,-0xa078(%rbp)
  401d24:	48 89 8d 80 5f ff ff 	mov    %rcx,-0xa080(%rbp)
  401d2b:	4c 89 85 78 5f ff ff 	mov    %r8,-0xa088(%rbp)
  401d32:	4c 89 8d 70 5f ff ff 	mov    %r9,-0xa090(%rbp)
  401d39:	c7 85 ac 7f ff ff 00 	movl   $0x0,-0x8054(%rbp)
  401d40:	00 00 00 
  401d43:	ba 00 00 00 00       	mov    $0x0,%edx
  401d48:	be 01 00 00 00       	mov    $0x1,%esi
  401d4d:	bf 02 00 00 00       	mov    $0x2,%edi
  401d52:	e8 b9 ef ff ff       	callq  400d10 <socket@plt>
  401d57:	89 45 ec             	mov    %eax,-0x14(%rbp)
  401d5a:	83 7d ec 00          	cmpl   $0x0,-0x14(%rbp)
  401d5e:	79 52                	jns    401db2 <submitr+0xae>
  401d60:	48 8b 45 10          	mov    0x10(%rbp),%rax
  401d64:	48 bb 45 72 72 6f 72 	movabs $0x43203a726f727245,%rbx
  401d6b:	3a 20 43 
  401d6e:	48 89 18             	mov    %rbx,(%rax)
  401d71:	48 bb 6c 69 65 6e 74 	movabs $0x6e7520746e65696c,%rbx
  401d78:	20 75 6e 
  401d7b:	48 89 58 08          	mov    %rbx,0x8(%rax)
  401d7f:	48 bb 61 62 6c 65 20 	movabs $0x206f7420656c6261,%rbx
  401d86:	74 6f 20 
  401d89:	48 89 58 10          	mov    %rbx,0x10(%rax)
  401d8d:	48 bb 63 72 65 61 74 	movabs $0x7320657461657263,%rbx
  401d94:	65 20 73 
  401d97:	48 89 58 18          	mov    %rbx,0x18(%rax)
  401d9b:	c7 40 20 6f 63 6b 65 	movl   $0x656b636f,0x20(%rax)
  401da2:	66 c7 40 24 74 00    	movw   $0x74,0x24(%rax)
  401da8:	b8 ff ff ff ff       	mov    $0xffffffff,%eax
  401dad:	e9 77 06 00 00       	jmpq   402429 <submitr+0x725>
  401db2:	48 8b 85 98 5f ff ff 	mov    -0xa068(%rbp),%rax
  401db9:	48 89 c7             	mov    %rax,%rdi
  401dbc:	e8 5f ee ff ff       	callq  400c20 <gethostbyname@plt>
  401dc1:	48 89 45 e0          	mov    %rax,-0x20(%rbp)
  401dc5:	48 83 7d e0 00       	cmpq   $0x0,-0x20(%rbp)
  401dca:	75 6e                	jne    401e3a <submitr+0x136>
  401dcc:	48 8b 45 10          	mov    0x10(%rbp),%rax
  401dd0:	48 bb 45 72 72 6f 72 	movabs $0x44203a726f727245,%rbx
  401dd7:	3a 20 44 
  401dda:	48 89 18             	mov    %rbx,(%rax)
  401ddd:	48 bb 4e 53 20 69 73 	movabs $0x6e7520736920534e,%rbx
  401de4:	20 75 6e 
  401de7:	48 89 58 08          	mov    %rbx,0x8(%rax)
  401deb:	48 bb 61 62 6c 65 20 	movabs $0x206f7420656c6261,%rbx
  401df2:	74 6f 20 
  401df5:	48 89 58 10          	mov    %rbx,0x10(%rax)
  401df9:	48 bb 72 65 73 6f 6c 	movabs $0x2065766c6f736572,%rbx
  401e00:	76 65 20 
  401e03:	48 89 58 18          	mov    %rbx,0x18(%rax)
  401e07:	48 bb 73 65 72 76 65 	movabs $0x6120726576726573,%rbx
  401e0e:	72 20 61 
  401e11:	48 89 58 20          	mov    %rbx,0x20(%rax)
  401e15:	c7 40 28 64 64 72 65 	movl   $0x65726464,0x28(%rax)
  401e1c:	66 c7 40 2c 73 73    	movw   $0x7373,0x2c(%rax)
  401e22:	c6 40 2e 00          	movb   $0x0,0x2e(%rax)
  401e26:	8b 45 ec             	mov    -0x14(%rbp),%eax
  401e29:	89 c7                	mov    %eax,%edi
  401e2b:	e8 90 ed ff ff       	callq  400bc0 <close@plt>
  401e30:	b8 ff ff ff ff       	mov    $0xffffffff,%eax
  401e35:	e9 ef 05 00 00       	jmpq   402429 <submitr+0x725>
  401e3a:	48 8d 45 c0          	lea    -0x40(%rbp),%rax
  401e3e:	be 10 00 00 00       	mov    $0x10,%esi
  401e43:	48 89 c7             	mov    %rax,%rdi
  401e46:	e8 55 ee ff ff       	callq  400ca0 <bzero@plt>
  401e4b:	66 c7 45 c0 02 00    	movw   $0x2,-0x40(%rbp)
  401e51:	48 8b 45 e0          	mov    -0x20(%rbp),%rax
  401e55:	8b 40 14             	mov    0x14(%rax),%eax
  401e58:	48 63 d0             	movslq %eax,%rdx
  401e5b:	48 8b 45 e0          	mov    -0x20(%rbp),%rax
  401e5f:	48 8b 40 18          	mov    0x18(%rax),%rax
  401e63:	48 8b 00             	mov    (%rax),%rax
  401e66:	48 8d 4d c0          	lea    -0x40(%rbp),%rcx
  401e6a:	48 83 c1 04          	add    $0x4,%rcx
  401e6e:	48 89 ce             	mov    %rcx,%rsi
  401e71:	48 89 c7             	mov    %rax,%rdi
  401e74:	e8 07 ee ff ff       	callq  400c80 <bcopy@plt>
  401e79:	8b 85 94 5f ff ff    	mov    -0xa06c(%rbp),%eax
  401e7f:	0f b7 c0             	movzwl %ax,%eax
  401e82:	89 c7                	mov    %eax,%edi
  401e84:	e8 07 ed ff ff       	callq  400b90 <htons@plt>
  401e89:	66 89 45 c2          	mov    %ax,-0x3e(%rbp)
  401e8d:	48 8d 4d c0          	lea    -0x40(%rbp),%rcx
  401e91:	8b 45 ec             	mov    -0x14(%rbp),%eax
  401e94:	ba 10 00 00 00       	mov    $0x10,%edx
  401e99:	48 89 ce             	mov    %rcx,%rsi
  401e9c:	89 c7                	mov    %eax,%edi
  401e9e:	e8 3d ee ff ff       	callq  400ce0 <connect@plt>
  401ea3:	85 c0                	test   %eax,%eax
  401ea5:	79 60                	jns    401f07 <submitr+0x203>
  401ea7:	48 8b 45 10          	mov    0x10(%rbp),%rax
  401eab:	48 be 45 72 72 6f 72 	movabs $0x55203a726f727245,%rsi
  401eb2:	3a 20 55 
  401eb5:	48 89 30             	mov    %rsi,(%rax)
  401eb8:	48 bb 6e 61 62 6c 65 	movabs $0x6f7420656c62616e,%rbx
  401ebf:	20 74 6f 
  401ec2:	48 89 58 08          	mov    %rbx,0x8(%rax)
  401ec6:	48 b9 20 63 6f 6e 6e 	movabs $0x7463656e6e6f6320,%rcx
  401ecd:	65 63 74 
  401ed0:	48 89 48 10          	mov    %rcx,0x10(%rax)
  401ed4:	48 be 20 74 6f 20 74 	movabs $0x20656874206f7420,%rsi
  401edb:	68 65 20 
  401ede:	48 89 70 18          	mov    %rsi,0x18(%rax)
  401ee2:	c7 40 20 73 65 72 76 	movl   $0x76726573,0x20(%rax)
  401ee9:	66 c7 40 24 65 72    	movw   $0x7265,0x24(%rax)
  401eef:	c6 40 26 00          	movb   $0x0,0x26(%rax)
  401ef3:	8b 45 ec             	mov    -0x14(%rbp),%eax
  401ef6:	89 c7                	mov    %eax,%edi
  401ef8:	e8 c3 ec ff ff       	callq  400bc0 <close@plt>
  401efd:	b8 ff ff ff ff       	mov    $0xffffffff,%eax
  401f02:	e9 22 05 00 00       	jmpq   402429 <submitr+0x725>
  401f07:	48 8b 85 70 5f ff ff 	mov    -0xa090(%rbp),%rax
  401f0e:	48 89 c7             	mov    %rax,%rdi
  401f11:	e8 6a ec ff ff       	callq  400b80 <strlen@plt>
  401f16:	48 89 45 d8          	mov    %rax,-0x28(%rbp)
  401f1a:	48 8b 85 88 5f ff ff 	mov    -0xa078(%rbp),%rax
  401f21:	48 89 c7             	mov    %rax,%rdi
  401f24:	e8 57 ec ff ff       	callq  400b80 <strlen@plt>
  401f29:	48 89 c3             	mov    %rax,%rbx
  401f2c:	48 8b 85 80 5f ff ff 	mov    -0xa080(%rbp),%rax
  401f33:	48 89 c7             	mov    %rax,%rdi
  401f36:	e8 45 ec ff ff       	callq  400b80 <strlen@plt>
  401f3b:	48 01 c3             	add    %rax,%rbx
  401f3e:	48 8b 85 78 5f ff ff 	mov    -0xa088(%rbp),%rax
  401f45:	48 89 c7             	mov    %rax,%rdi
  401f48:	e8 33 ec ff ff       	callq  400b80 <strlen@plt>
  401f4d:	48 8d 0c 03          	lea    (%rbx,%rax,1),%rcx
  401f51:	48 8b 55 d8          	mov    -0x28(%rbp),%rdx
  401f55:	48 89 d0             	mov    %rdx,%rax
  401f58:	48 01 c0             	add    %rax,%rax
  401f5b:	48 01 d0             	add    %rdx,%rax
  401f5e:	48 01 c8             	add    %rcx,%rax
  401f61:	48 83 e8 80          	sub    $0xffffffffffffff80,%rax
  401f65:	48 89 45 d0          	mov    %rax,-0x30(%rbp)
  401f69:	48 81 7d d0 00 20 00 	cmpq   $0x2000,-0x30(%rbp)
  401f70:	00 
  401f71:	76 79                	jbe    401fec <submitr+0x2e8>
  401f73:	48 8b 45 10          	mov    0x10(%rbp),%rax
  401f77:	48 bb 45 72 72 6f 72 	movabs $0x52203a726f727245,%rbx
  401f7e:	3a 20 52 
  401f81:	48 89 18             	mov    %rbx,(%rax)
  401f84:	48 b9 65 73 75 6c 74 	movabs $0x747320746c757365,%rcx
  401f8b:	20 73 74 
  401f8e:	48 89 48 08          	mov    %rcx,0x8(%rax)
  401f92:	48 be 72 69 6e 67 20 	movabs $0x6f6f7420676e6972,%rsi
  401f99:	74 6f 6f 
  401f9c:	48 89 70 10          	mov    %rsi,0x10(%rax)
  401fa0:	48 bb 20 6c 61 72 67 	movabs $0x202e656772616c20,%rbx
  401fa7:	65 2e 20 
  401faa:	48 89 58 18          	mov    %rbx,0x18(%rax)
  401fae:	48 ba 49 6e 63 72 65 	movabs $0x6573616572636e49,%rdx
  401fb5:	61 73 65 
  401fb8:	48 89 50 20          	mov    %rdx,0x20(%rax)
  401fbc:	48 b9 20 53 55 42 4d 	movabs $0x5254494d42555320,%rcx
  401fc3:	49 54 52 
  401fc6:	48 89 48 28          	mov    %rcx,0x28(%rax)
  401fca:	48 be 5f 4d 41 58 42 	movabs $0x46554258414d5f,%rsi
  401fd1:	55 46 00 
  401fd4:	48 89 70 30          	mov    %rsi,0x30(%rax)
  401fd8:	8b 45 ec             	mov    -0x14(%rbp),%eax
  401fdb:	89 c7                	mov    %eax,%edi
  401fdd:	e8 de eb ff ff       	callq  400bc0 <close@plt>
  401fe2:	b8 ff ff ff ff       	mov    $0xffffffff,%eax
  401fe7:	e9 3d 04 00 00       	jmpq   402429 <submitr+0x725>
  401fec:	48 8d 85 b0 9f ff ff 	lea    -0x6050(%rbp),%rax
  401ff3:	be 00 20 00 00       	mov    $0x2000,%esi
  401ff8:	48 89 c7             	mov    %rax,%rdi
  401ffb:	e8 a0 ec ff ff       	callq  400ca0 <bzero@plt>
  402000:	48 8d 95 b0 9f ff ff 	lea    -0x6050(%rbp),%rdx
  402007:	48 8b 85 70 5f ff ff 	mov    -0xa090(%rbp),%rax
  40200e:	48 89 d6             	mov    %rdx,%rsi
  402011:	48 89 c7             	mov    %rax,%rdi
  402014:	e8 83 fb ff ff       	callq  401b9c <urlencode>
  402019:	85 c0                	test   %eax,%eax
  40201b:	0f 89 91 00 00 00    	jns    4020b2 <submitr+0x3ae>
  402021:	48 8b 45 10          	mov    0x10(%rbp),%rax
  402025:	48 bb 45 72 72 6f 72 	movabs $0x52203a726f727245,%rbx
  40202c:	3a 20 52 
  40202f:	48 89 18             	mov    %rbx,(%rax)
  402032:	48 ba 65 73 75 6c 74 	movabs $0x747320746c757365,%rdx
  402039:	20 73 74 
  40203c:	48 89 50 08          	mov    %rdx,0x8(%rax)
  402040:	48 b9 72 69 6e 67 20 	movabs $0x6e6f6320676e6972,%rcx
  402047:	63 6f 6e 
  40204a:	48 89 48 10          	mov    %rcx,0x10(%rax)
  40204e:	48 be 74 61 69 6e 73 	movabs $0x6e6120736e696174,%rsi
  402055:	20 61 6e 
  402058:	48 89 70 18          	mov    %rsi,0x18(%rax)
  40205c:	48 bb 20 69 6c 6c 65 	movabs $0x6c6167656c6c6920,%rbx
  402063:	67 61 6c 
  402066:	48 89 58 20          	mov    %rbx,0x20(%rax)
  40206a:	48 ba 20 6f 72 20 75 	movabs $0x72706e7520726f20,%rdx
  402071:	6e 70 72 
  402074:	48 89 50 28          	mov    %rdx,0x28(%rax)
  402078:	48 b9 69 6e 74 61 62 	movabs $0x20656c6261746e69,%rcx
  40207f:	6c 65 20 
  402082:	48 89 48 30          	mov    %rcx,0x30(%rax)
  402086:	48 be 63 68 61 72 61 	movabs $0x6574636172616863,%rsi
  40208d:	63 74 65 
  402090:	48 89 70 38          	mov    %rsi,0x38(%rax)
  402094:	66 c7 40 40 72 2e    	movw   $0x2e72,0x40(%rax)
  40209a:	c6 40 42 00          	movb   $0x0,0x42(%rax)
  40209e:	8b 45 ec             	mov    -0x14(%rbp),%eax
  4020a1:	89 c7                	mov    %eax,%edi
  4020a3:	e8 18 eb ff ff       	callq  400bc0 <close@plt>
  4020a8:	b8 ff ff ff ff       	mov    $0xffffffff,%eax
  4020ad:	e9 77 03 00 00       	jmpq   402429 <submitr+0x725>
  4020b2:	48 8d bd b0 9f ff ff 	lea    -0x6050(%rbp),%rdi
  4020b9:	48 8b b5 78 5f ff ff 	mov    -0xa088(%rbp),%rsi
  4020c0:	48 8b 8d 80 5f ff ff 	mov    -0xa080(%rbp),%rcx
  4020c7:	48 8b 95 88 5f ff ff 	mov    -0xa078(%rbp),%rdx
  4020ce:	48 8d 85 b0 bf ff ff 	lea    -0x4050(%rbp),%rax
  4020d5:	49 89 f9             	mov    %rdi,%r9
  4020d8:	49 89 f0             	mov    %rsi,%r8
  4020db:	be 80 2b 40 00       	mov    $0x402b80,%esi
  4020e0:	48 89 c7             	mov    %rax,%rdi
  4020e3:	b8 00 00 00 00       	mov    $0x0,%eax
  4020e8:	e8 d3 eb ff ff       	callq  400cc0 <sprintf@plt>
  4020ed:	48 8d 85 b0 bf ff ff 	lea    -0x4050(%rbp),%rax
  4020f4:	48 89 c7             	mov    %rax,%rdi
  4020f7:	e8 84 ea ff ff       	callq  400b80 <strlen@plt>
  4020fc:	48 89 c2             	mov    %rax,%rdx
  4020ff:	48 8d 8d b0 bf ff ff 	lea    -0x4050(%rbp),%rcx
  402106:	8b 45 ec             	mov    -0x14(%rbp),%eax
  402109:	48 89 ce             	mov    %rcx,%rsi
  40210c:	89 c7                	mov    %eax,%edi
  40210e:	e8 08 fa ff ff       	callq  401b1b <rio_writen>
  402113:	48 85 c0             	test   %rax,%rax
  402116:	79 64                	jns    40217c <submitr+0x478>
  402118:	48 8b 45 10          	mov    0x10(%rbp),%rax
  40211c:	48 bb 45 72 72 6f 72 	movabs $0x43203a726f727245,%rbx
  402123:	3a 20 43 
  402126:	48 89 18             	mov    %rbx,(%rax)
  402129:	48 ba 6c 69 65 6e 74 	movabs $0x6e7520746e65696c,%rdx
  402130:	20 75 6e 
  402133:	48 89 50 08          	mov    %rdx,0x8(%rax)
  402137:	48 b9 61 62 6c 65 20 	movabs $0x206f7420656c6261,%rcx
  40213e:	74 6f 20 
  402141:	48 89 48 10          	mov    %rcx,0x10(%rax)
  402145:	48 be 77 72 69 74 65 	movabs $0x6f74206574697277,%rsi
  40214c:	20 74 6f 
  40214f:	48 89 70 18          	mov    %rsi,0x18(%rax)
  402153:	48 bb 20 74 68 65 20 	movabs $0x7265732065687420,%rbx
  40215a:	73 65 72 
  40215d:	48 89 58 20          	mov    %rbx,0x20(%rax)
  402161:	c7 40 28 76 65 72 00 	movl   $0x726576,0x28(%rax)
  402168:	8b 45 ec             	mov    -0x14(%rbp),%eax
  40216b:	89 c7                	mov    %eax,%edi
  40216d:	e8 4e ea ff ff       	callq  400bc0 <close@plt>
  402172:	b8 ff ff ff ff       	mov    $0xffffffff,%eax
  402177:	e9 ad 02 00 00       	jmpq   402429 <submitr+0x725>
  40217c:	8b 55 ec             	mov    -0x14(%rbp),%edx
  40217f:	48 8d 85 b0 df ff ff 	lea    -0x2050(%rbp),%rax
  402186:	89 d6                	mov    %edx,%esi
  402188:	48 89 c7             	mov    %rax,%rdi
  40218b:	e8 bf f7 ff ff       	callq  40194f <rio_readinitb>
  402190:	48 8d 8d b0 bf ff ff 	lea    -0x4050(%rbp),%rcx
  402197:	48 8d 85 b0 df ff ff 	lea    -0x2050(%rbp),%rax
  40219e:	ba 00 20 00 00       	mov    $0x2000,%edx
  4021a3:	48 89 ce             	mov    %rcx,%rsi
  4021a6:	48 89 c7             	mov    %rax,%rdi
  4021a9:	e8 d0 f8 ff ff       	callq  401a7e <rio_readlineb>
  4021ae:	48 85 c0             	test   %rax,%rax
  4021b1:	7f 78                	jg     40222b <submitr+0x527>
  4021b3:	48 8b 45 10          	mov    0x10(%rbp),%rax
  4021b7:	48 ba 45 72 72 6f 72 	movabs $0x43203a726f727245,%rdx
  4021be:	3a 20 43 
  4021c1:	48 89 10             	mov    %rdx,(%rax)
  4021c4:	48 b9 6c 69 65 6e 74 	movabs $0x6e7520746e65696c,%rcx
  4021cb:	20 75 6e 
  4021ce:	48 89 48 08          	mov    %rcx,0x8(%rax)
  4021d2:	48 be 61 62 6c 65 20 	movabs $0x206f7420656c6261,%rsi
  4021d9:	74 6f 20 
  4021dc:	48 89 70 10          	mov    %rsi,0x10(%rax)
  4021e0:	48 bb 72 65 61 64 20 	movabs $0x7269662064616572,%rbx
  4021e7:	66 69 72 
  4021ea:	48 89 58 18          	mov    %rbx,0x18(%rax)
  4021ee:	48 bf 73 74 20 68 65 	movabs $0x6564616568207473,%rdi
  4021f5:	61 64 65 
  4021f8:	48 89 78 20          	mov    %rdi,0x20(%rax)
  4021fc:	48 ba 72 20 66 72 6f 	movabs $0x73206d6f72662072,%rdx
  402203:	6d 20 73 
  402206:	48 89 50 28          	mov    %rdx,0x28(%rax)
  40220a:	c7 40 30 65 72 76 65 	movl   $0x65767265,0x30(%rax)
  402211:	66 c7 40 34 72 00    	movw   $0x72,0x34(%rax)
  402217:	8b 45 ec             	mov    -0x14(%rbp),%eax
  40221a:	89 c7                	mov    %eax,%edi
  40221c:	e8 9f e9 ff ff       	callq  400bc0 <close@plt>
  402221:	b8 ff ff ff ff       	mov    $0xffffffff,%eax
  402226:	e9 fe 01 00 00       	jmpq   402429 <submitr+0x725>
  40222b:	48 8d b5 a0 5f ff ff 	lea    -0xa060(%rbp),%rsi
  402232:	48 8d 8d ac 7f ff ff 	lea    -0x8054(%rbp),%rcx
  402239:	48 8d 95 b0 7f ff ff 	lea    -0x8050(%rbp),%rdx
  402240:	48 8d 85 b0 bf ff ff 	lea    -0x4050(%rbp),%rax
  402247:	49 89 f0             	mov    %rsi,%r8
  40224a:	be ca 2b 40 00       	mov    $0x402bca,%esi
  40224f:	48 89 c7             	mov    %rax,%rdi
  402252:	b8 00 00 00 00       	mov    $0x0,%eax
  402257:	e8 14 ea ff ff       	callq  400c70 <__isoc99_sscanf@plt>
  40225c:	8b 85 ac 7f ff ff    	mov    -0x8054(%rbp),%eax
  402262:	3d c8 00 00 00       	cmp    $0xc8,%eax
  402267:	74 39                	je     4022a2 <submitr+0x59e>
  402269:	8b 85 ac 7f ff ff    	mov    -0x8054(%rbp),%eax
  40226f:	48 8d 95 a0 5f ff ff 	lea    -0xa060(%rbp),%rdx
  402276:	48 89 d1             	mov    %rdx,%rcx
  402279:	89 c2                	mov    %eax,%edx
  40227b:	be e0 2b 40 00       	mov    $0x402be0,%esi
  402280:	48 8b 7d 10          	mov    0x10(%rbp),%rdi
  402284:	b8 00 00 00 00       	mov    $0x0,%eax
  402289:	e8 32 ea ff ff       	callq  400cc0 <sprintf@plt>
  40228e:	8b 45 ec             	mov    -0x14(%rbp),%eax
  402291:	89 c7                	mov    %eax,%edi
  402293:	e8 28 e9 ff ff       	callq  400bc0 <close@plt>
  402298:	b8 ff ff ff ff       	mov    $0xffffffff,%eax
  40229d:	e9 87 01 00 00       	jmpq   402429 <submitr+0x725>
  4022a2:	e9 92 00 00 00       	jmpq   402339 <submitr+0x635>
  4022a7:	48 8d 8d b0 bf ff ff 	lea    -0x4050(%rbp),%rcx
  4022ae:	48 8d 85 b0 df ff ff 	lea    -0x2050(%rbp),%rax
  4022b5:	ba 00 20 00 00       	mov    $0x2000,%edx
  4022ba:	48 89 ce             	mov    %rcx,%rsi
  4022bd:	48 89 c7             	mov    %rax,%rdi
  4022c0:	e8 b9 f7 ff ff       	callq  401a7e <rio_readlineb>
  4022c5:	48 85 c0             	test   %rax,%rax
  4022c8:	7f 6f                	jg     402339 <submitr+0x635>
  4022ca:	48 8b 45 10          	mov    0x10(%rbp),%rax
  4022ce:	48 b9 45 72 72 6f 72 	movabs $0x43203a726f727245,%rcx
  4022d5:	3a 20 43 
  4022d8:	48 89 08             	mov    %rcx,(%rax)
  4022db:	48 be 6c 69 65 6e 74 	movabs $0x6e7520746e65696c,%rsi
  4022e2:	20 75 6e 
  4022e5:	48 89 70 08          	mov    %rsi,0x8(%rax)
  4022e9:	48 bb 61 62 6c 65 20 	movabs $0x206f7420656c6261,%rbx
  4022f0:	74 6f 20 
  4022f3:	48 89 58 10          	mov    %rbx,0x10(%rax)
  4022f7:	48 bf 72 65 61 64 20 	movabs $0x6165682064616572,%rdi
  4022fe:	68 65 61 
  402301:	48 89 78 18          	mov    %rdi,0x18(%rax)
  402305:	48 ba 64 65 72 73 20 	movabs $0x6f72662073726564,%rdx
  40230c:	66 72 6f 
  40230f:	48 89 50 20          	mov    %rdx,0x20(%rax)
  402313:	48 b9 6d 20 73 65 72 	movabs $0x726576726573206d,%rcx
  40231a:	76 65 72 
  40231d:	48 89 48 28          	mov    %rcx,0x28(%rax)
  402321:	c6 40 30 00          	movb   $0x0,0x30(%rax)
  402325:	8b 45 ec             	mov    -0x14(%rbp),%eax
  402328:	89 c7                	mov    %eax,%edi
  40232a:	e8 91 e8 ff ff       	callq  400bc0 <close@plt>
  40232f:	b8 ff ff ff ff       	mov    $0xffffffff,%eax
  402334:	e9 f0 00 00 00       	jmpq   402429 <submitr+0x725>
  402339:	48 8d 85 b0 bf ff ff 	lea    -0x4050(%rbp),%rax
  402340:	be 0d 2c 40 00       	mov    $0x402c0d,%esi
  402345:	48 89 c7             	mov    %rax,%rdi
  402348:	e8 b3 e8 ff ff       	callq  400c00 <strcmp@plt>
  40234d:	85 c0                	test   %eax,%eax
  40234f:	0f 85 52 ff ff ff    	jne    4022a7 <submitr+0x5a3>
  402355:	48 8d 8d b0 bf ff ff 	lea    -0x4050(%rbp),%rcx
  40235c:	48 8d 85 b0 df ff ff 	lea    -0x2050(%rbp),%rax
  402363:	ba 00 20 00 00       	mov    $0x2000,%edx
  402368:	48 89 ce             	mov    %rcx,%rsi
  40236b:	48 89 c7             	mov    %rax,%rdi
  40236e:	e8 0b f7 ff ff       	callq  401a7e <rio_readlineb>
  402373:	48 85 c0             	test   %rax,%rax
  402376:	7f 76                	jg     4023ee <submitr+0x6ea>
  402378:	48 8b 45 10          	mov    0x10(%rbp),%rax
  40237c:	48 be 45 72 72 6f 72 	movabs $0x43203a726f727245,%rsi
  402383:	3a 20 43 
  402386:	48 89 30             	mov    %rsi,(%rax)
  402389:	48 bb 6c 69 65 6e 74 	movabs $0x6e7520746e65696c,%rbx
  402390:	20 75 6e 
  402393:	48 89 58 08          	mov    %rbx,0x8(%rax)
  402397:	48 bf 61 62 6c 65 20 	movabs $0x206f7420656c6261,%rdi
  40239e:	74 6f 20 
  4023a1:	48 89 78 10          	mov    %rdi,0x10(%rax)
  4023a5:	48 ba 72 65 61 64 20 	movabs $0x6174732064616572,%rdx
  4023ac:	73 74 61 
  4023af:	48 89 50 18          	mov    %rdx,0x18(%rax)
  4023b3:	48 b9 74 75 73 20 6d 	movabs $0x7373656d20737574,%rcx
  4023ba:	65 73 73 
  4023bd:	48 89 48 20          	mov    %rcx,0x20(%rax)
  4023c1:	48 be 61 67 65 20 66 	movabs $0x6d6f726620656761,%rsi
  4023c8:	72 6f 6d 
  4023cb:	48 89 70 28          	mov    %rsi,0x28(%rax)
  4023cf:	48 bb 20 73 65 72 76 	movabs $0x72657672657320,%rbx
  4023d6:	65 72 00 
  4023d9:	48 89 58 30          	mov    %rbx,0x30(%rax)
  4023dd:	8b 45 ec             	mov    -0x14(%rbp),%eax
  4023e0:	89 c7                	mov    %eax,%edi
  4023e2:	e8 d9 e7 ff ff       	callq  400bc0 <close@plt>
  4023e7:	b8 ff ff ff ff       	mov    $0xffffffff,%eax
  4023ec:	eb 3b                	jmp    402429 <submitr+0x725>
  4023ee:	48 8d 85 b0 bf ff ff 	lea    -0x4050(%rbp),%rax
  4023f5:	48 89 c6             	mov    %rax,%rsi
  4023f8:	48 8b 7d 10          	mov    0x10(%rbp),%rdi
  4023fc:	e8 4f e7 ff ff       	callq  400b50 <strcpy@plt>
  402401:	8b 45 ec             	mov    -0x14(%rbp),%eax
  402404:	89 c7                	mov    %eax,%edi
  402406:	e8 b5 e7 ff ff       	callq  400bc0 <close@plt>
  40240b:	be 10 2c 40 00       	mov    $0x402c10,%esi
  402410:	48 8b 7d 10          	mov    0x10(%rbp),%rdi
  402414:	e8 e7 e7 ff ff       	callq  400c00 <strcmp@plt>
  402419:	85 c0                	test   %eax,%eax
  40241b:	75 07                	jne    402424 <submitr+0x720>
  40241d:	b8 00 00 00 00       	mov    $0x0,%eax
  402422:	eb 05                	jmp    402429 <submitr+0x725>
  402424:	b8 ff ff ff ff       	mov    $0xffffffff,%eax
  402429:	48 81 c4 88 a0 00 00 	add    $0xa088,%rsp
  402430:	5b                   	pop    %rbx
  402431:	5d                   	pop    %rbp
  402432:	c3                   	retq   

0000000000402433 <init_timeout>:
init_timeout():
  402433:	55                   	push   %rbp
  402434:	48 89 e5             	mov    %rsp,%rbp
  402437:	48 83 ec 10          	sub    $0x10,%rsp
  40243b:	89 7d fc             	mov    %edi,-0x4(%rbp)
  40243e:	83 7d fc 00          	cmpl   $0x0,-0x4(%rbp)
  402442:	75 02                	jne    402446 <init_timeout+0x13>
  402444:	eb 26                	jmp    40246c <init_timeout+0x39>
  402446:	83 7d fc 00          	cmpl   $0x0,-0x4(%rbp)
  40244a:	79 07                	jns    402453 <init_timeout+0x20>
  40244c:	c7 45 fc 00 00 00 00 	movl   $0x0,-0x4(%rbp)
  402453:	be 1c 19 40 00       	mov    $0x40191c,%esi
  402458:	bf 0e 00 00 00       	mov    $0xe,%edi
  40245d:	e8 ae e7 ff ff       	callq  400c10 <signal@plt>
  402462:	8b 45 fc             	mov    -0x4(%rbp),%eax
  402465:	89 c7                	mov    %eax,%edi
  402467:	e8 44 e7 ff ff       	callq  400bb0 <alarm@plt>
  40246c:	c9                   	leaveq 
  40246d:	c3                   	retq   

000000000040246e <init_driver>:
init_driver():
  40246e:	55                   	push   %rbp
  40246f:	48 89 e5             	mov    %rsp,%rbp
  402472:	48 83 ec 40          	sub    $0x40,%rsp
  402476:	48 89 7d c8          	mov    %rdi,-0x38(%rbp)
  40247a:	48 c7 45 f8 13 2c 40 	movq   $0x402c13,-0x8(%rbp)
  402481:	00 
  402482:	c7 45 f4 6e 3b 00 00 	movl   $0x3b6e,-0xc(%rbp)
  402489:	be 01 00 00 00       	mov    $0x1,%esi
  40248e:	bf 0d 00 00 00       	mov    $0xd,%edi
  402493:	e8 78 e7 ff ff       	callq  400c10 <signal@plt>
  402498:	be 01 00 00 00       	mov    $0x1,%esi
  40249d:	bf 1d 00 00 00       	mov    $0x1d,%edi
  4024a2:	e8 69 e7 ff ff       	callq  400c10 <signal@plt>
  4024a7:	be 01 00 00 00       	mov    $0x1,%esi
  4024ac:	bf 1d 00 00 00       	mov    $0x1d,%edi
  4024b1:	e8 5a e7 ff ff       	callq  400c10 <signal@plt>
  4024b6:	ba 00 00 00 00       	mov    $0x0,%edx
  4024bb:	be 01 00 00 00       	mov    $0x1,%esi
  4024c0:	bf 02 00 00 00       	mov    $0x2,%edi
  4024c5:	e8 46 e8 ff ff       	callq  400d10 <socket@plt>
  4024ca:	89 45 f0             	mov    %eax,-0x10(%rbp)
  4024cd:	83 7d f0 00          	cmpl   $0x0,-0x10(%rbp)
  4024d1:	79 52                	jns    402525 <init_driver+0xb7>
  4024d3:	48 8b 45 c8          	mov    -0x38(%rbp),%rax
  4024d7:	48 b9 45 72 72 6f 72 	movabs $0x43203a726f727245,%rcx
  4024de:	3a 20 43 
  4024e1:	48 89 08             	mov    %rcx,(%rax)
  4024e4:	48 ba 6c 69 65 6e 74 	movabs $0x6e7520746e65696c,%rdx
  4024eb:	20 75 6e 
  4024ee:	48 89 50 08          	mov    %rdx,0x8(%rax)
  4024f2:	48 b9 61 62 6c 65 20 	movabs $0x206f7420656c6261,%rcx
  4024f9:	74 6f 20 
  4024fc:	48 89 48 10          	mov    %rcx,0x10(%rax)
  402500:	48 be 63 72 65 61 74 	movabs $0x7320657461657263,%rsi
  402507:	65 20 73 
  40250a:	48 89 70 18          	mov    %rsi,0x18(%rax)
  40250e:	c7 40 20 6f 63 6b 65 	movl   $0x656b636f,0x20(%rax)
  402515:	66 c7 40 24 74 00    	movw   $0x74,0x24(%rax)
  40251b:	b8 ff ff ff ff       	mov    $0xffffffff,%eax
  402520:	e9 36 01 00 00       	jmpq   40265b <init_driver+0x1ed>
  402525:	48 8b 45 f8          	mov    -0x8(%rbp),%rax
  402529:	48 89 c7             	mov    %rax,%rdi
  40252c:	e8 ef e6 ff ff       	callq  400c20 <gethostbyname@plt>
  402531:	48 89 45 e8          	mov    %rax,-0x18(%rbp)
  402535:	48 83 7d e8 00       	cmpq   $0x0,-0x18(%rbp)
  40253a:	75 6e                	jne    4025aa <init_driver+0x13c>
  40253c:	48 8b 45 c8          	mov    -0x38(%rbp),%rax
  402540:	48 ba 45 72 72 6f 72 	movabs $0x44203a726f727245,%rdx
  402547:	3a 20 44 
  40254a:	48 89 10             	mov    %rdx,(%rax)
  40254d:	48 b9 4e 53 20 69 73 	movabs $0x6e7520736920534e,%rcx
  402554:	20 75 6e 
  402557:	48 89 48 08          	mov    %rcx,0x8(%rax)
  40255b:	48 be 61 62 6c 65 20 	movabs $0x206f7420656c6261,%rsi
  402562:	74 6f 20 
  402565:	48 89 70 10          	mov    %rsi,0x10(%rax)
  402569:	48 ba 72 65 73 6f 6c 	movabs $0x2065766c6f736572,%rdx
  402570:	76 65 20 
  402573:	48 89 50 18          	mov    %rdx,0x18(%rax)
  402577:	48 b9 73 65 72 76 65 	movabs $0x6120726576726573,%rcx
  40257e:	72 20 61 
  402581:	48 89 48 20          	mov    %rcx,0x20(%rax)
  402585:	c7 40 28 64 64 72 65 	movl   $0x65726464,0x28(%rax)
  40258c:	66 c7 40 2c 73 73    	movw   $0x7373,0x2c(%rax)
  402592:	c6 40 2e 00          	movb   $0x0,0x2e(%rax)
  402596:	8b 45 f0             	mov    -0x10(%rbp),%eax
  402599:	89 c7                	mov    %eax,%edi
  40259b:	e8 20 e6 ff ff       	callq  400bc0 <close@plt>
  4025a0:	b8 ff ff ff ff       	mov    $0xffffffff,%eax
  4025a5:	e9 b1 00 00 00       	jmpq   40265b <init_driver+0x1ed>
  4025aa:	48 8d 45 d0          	lea    -0x30(%rbp),%rax
  4025ae:	be 10 00 00 00       	mov    $0x10,%esi
  4025b3:	48 89 c7             	mov    %rax,%rdi
  4025b6:	e8 e5 e6 ff ff       	callq  400ca0 <bzero@plt>
  4025bb:	66 c7 45 d0 02 00    	movw   $0x2,-0x30(%rbp)
  4025c1:	48 8b 45 e8          	mov    -0x18(%rbp),%rax
  4025c5:	8b 40 14             	mov    0x14(%rax),%eax
  4025c8:	48 63 d0             	movslq %eax,%rdx
  4025cb:	48 8b 45 e8          	mov    -0x18(%rbp),%rax
  4025cf:	48 8b 40 18          	mov    0x18(%rax),%rax
  4025d3:	48 8b 00             	mov    (%rax),%rax
  4025d6:	48 8d 4d d0          	lea    -0x30(%rbp),%rcx
  4025da:	48 83 c1 04          	add    $0x4,%rcx
  4025de:	48 89 ce             	mov    %rcx,%rsi
  4025e1:	48 89 c7             	mov    %rax,%rdi
  4025e4:	e8 97 e6 ff ff       	callq  400c80 <bcopy@plt>
  4025e9:	8b 45 f4             	mov    -0xc(%rbp),%eax
  4025ec:	0f b7 c0             	movzwl %ax,%eax
  4025ef:	89 c7                	mov    %eax,%edi
  4025f1:	e8 9a e5 ff ff       	callq  400b90 <htons@plt>
  4025f6:	66 89 45 d2          	mov    %ax,-0x2e(%rbp)
  4025fa:	48 8d 4d d0          	lea    -0x30(%rbp),%rcx
  4025fe:	8b 45 f0             	mov    -0x10(%rbp),%eax
  402601:	ba 10 00 00 00       	mov    $0x10,%edx
  402606:	48 89 ce             	mov    %rcx,%rsi
  402609:	89 c7                	mov    %eax,%edi
  40260b:	e8 d0 e6 ff ff       	callq  400ce0 <connect@plt>
  402610:	85 c0                	test   %eax,%eax
  402612:	79 2b                	jns    40263f <init_driver+0x1d1>
  402614:	48 8b 55 f8          	mov    -0x8(%rbp),%rdx
  402618:	48 8b 45 c8          	mov    -0x38(%rbp),%rax
  40261c:	be 30 2c 40 00       	mov    $0x402c30,%esi
  402621:	48 89 c7             	mov    %rax,%rdi
  402624:	b8 00 00 00 00       	mov    $0x0,%eax
  402629:	e8 92 e6 ff ff       	callq  400cc0 <sprintf@plt>
  40262e:	8b 45 f0             	mov    -0x10(%rbp),%eax
  402631:	89 c7                	mov    %eax,%edi
  402633:	e8 88 e5 ff ff       	callq  400bc0 <close@plt>
  402638:	b8 ff ff ff ff       	mov    $0xffffffff,%eax
  40263d:	eb 1c                	jmp    40265b <init_driver+0x1ed>
  40263f:	8b 45 f0             	mov    -0x10(%rbp),%eax
  402642:	89 c7                	mov    %eax,%edi
  402644:	e8 77 e5 ff ff       	callq  400bc0 <close@plt>
  402649:	48 8b 45 c8          	mov    -0x38(%rbp),%rax
  40264d:	66 c7 00 4f 4b       	movw   $0x4b4f,(%rax)
  402652:	c6 40 02 00          	movb   $0x0,0x2(%rax)
  402656:	b8 00 00 00 00       	mov    $0x0,%eax
  40265b:	c9                   	leaveq 
  40265c:	c3                   	retq   

000000000040265d <driver_post>:
driver_post():
  40265d:	55                   	push   %rbp
  40265e:	48 89 e5             	mov    %rsp,%rbp
  402661:	48 83 ec 30          	sub    $0x30,%rsp
  402665:	48 89 7d e8          	mov    %rdi,-0x18(%rbp)
  402669:	48 89 75 e0          	mov    %rsi,-0x20(%rbp)
  40266d:	89 55 dc             	mov    %edx,-0x24(%rbp)
  402670:	48 89 4d d0          	mov    %rcx,-0x30(%rbp)
  402674:	83 7d dc 00          	cmpl   $0x0,-0x24(%rbp)
  402678:	74 2a                	je     4026a4 <driver_post+0x47>
  40267a:	48 8b 45 e0          	mov    -0x20(%rbp),%rax
  40267e:	48 89 c6             	mov    %rax,%rsi
  402681:	bf 56 2c 40 00       	mov    $0x402c56,%edi
  402686:	b8 00 00 00 00       	mov    $0x0,%eax
  40268b:	e8 10 e5 ff ff       	callq  400ba0 <printf@plt>
  402690:	48 8b 45 d0          	mov    -0x30(%rbp),%rax
  402694:	66 c7 00 4f 4b       	movw   $0x4b4f,(%rax)
  402699:	c6 40 02 00          	movb   $0x0,0x2(%rax)
  40269d:	b8 00 00 00 00       	mov    $0x0,%eax
  4026a2:	eb 5f                	jmp    402703 <driver_post+0xa6>
  4026a4:	48 83 7d e8 00       	cmpq   $0x0,-0x18(%rbp)
  4026a9:	74 46                	je     4026f1 <driver_post+0x94>
  4026ab:	48 8b 45 e8          	mov    -0x18(%rbp),%rax
  4026af:	0f b6 00             	movzbl (%rax),%eax
  4026b2:	84 c0                	test   %al,%al
  4026b4:	74 3b                	je     4026f1 <driver_post+0x94>
  4026b6:	48 83 ec 08          	sub    $0x8,%rsp
  4026ba:	48 8b 55 e0          	mov    -0x20(%rbp),%rdx
  4026be:	48 8b 45 e8          	mov    -0x18(%rbp),%rax
  4026c2:	ff 75 d0             	pushq  -0x30(%rbp)
  4026c5:	49 89 d1             	mov    %rdx,%r9
  4026c8:	41 b8 6d 2c 40 00    	mov    $0x402c6d,%r8d
  4026ce:	48 89 c1             	mov    %rax,%rcx
  4026d1:	ba 75 2c 40 00       	mov    $0x402c75,%edx
  4026d6:	be 6e 3b 00 00       	mov    $0x3b6e,%esi
  4026db:	bf 13 2c 40 00       	mov    $0x402c13,%edi
  4026e0:	e8 1f f6 ff ff       	callq  401d04 <submitr>
  4026e5:	48 83 c4 10          	add    $0x10,%rsp
  4026e9:	89 45 fc             	mov    %eax,-0x4(%rbp)
  4026ec:	8b 45 fc             	mov    -0x4(%rbp),%eax
  4026ef:	eb 12                	jmp    402703 <driver_post+0xa6>
  4026f1:	48 8b 45 d0          	mov    -0x30(%rbp),%rax
  4026f5:	66 c7 00 4f 4b       	movw   $0x4b4f,(%rax)
  4026fa:	c6 40 02 00          	movb   $0x0,0x2(%rax)
  4026fe:	b8 00 00 00 00       	mov    $0x0,%eax
  402703:	c9                   	leaveq 
  402704:	c3                   	retq   
  402705:	66 2e 0f 1f 84 00 00 	nopw   %cs:0x0(%rax,%rax,1)
  40270c:	00 00 00 
  40270f:	90                   	nop

0000000000402710 <__libc_csu_init>:
__libc_csu_init():
  402710:	41 57                	push   %r15
  402712:	41 89 ff             	mov    %edi,%r15d
  402715:	41 56                	push   %r14
  402717:	49 89 f6             	mov    %rsi,%r14
  40271a:	41 55                	push   %r13
  40271c:	49 89 d5             	mov    %rdx,%r13
  40271f:	41 54                	push   %r12
  402721:	4c 8d 25 68 0b 20 00 	lea    0x200b68(%rip),%r12        # 603290 <__frame_dummy_init_array_entry>
  402728:	55                   	push   %rbp
  402729:	48 8d 2d 68 0b 20 00 	lea    0x200b68(%rip),%rbp        # 603298 <__init_array_end>
  402730:	53                   	push   %rbx
  402731:	4c 29 e5             	sub    %r12,%rbp
  402734:	31 db                	xor    %ebx,%ebx
  402736:	48 c1 fd 03          	sar    $0x3,%rbp
  40273a:	48 83 ec 08          	sub    $0x8,%rsp
  40273e:	e8 b5 e3 ff ff       	callq  400af8 <_init>
  402743:	48 85 ed             	test   %rbp,%rbp
  402746:	74 1e                	je     402766 <__libc_csu_init+0x56>
  402748:	0f 1f 84 00 00 00 00 	nopl   0x0(%rax,%rax,1)
  40274f:	00 
  402750:	4c 89 ea             	mov    %r13,%rdx
  402753:	4c 89 f6             	mov    %r14,%rsi
  402756:	44 89 ff             	mov    %r15d,%edi
  402759:	41 ff 14 dc          	callq  *(%r12,%rbx,8)
  40275d:	48 83 c3 01          	add    $0x1,%rbx
  402761:	48 39 eb             	cmp    %rbp,%rbx
  402764:	75 ea                	jne    402750 <__libc_csu_init+0x40>
  402766:	48 83 c4 08          	add    $0x8,%rsp
  40276a:	5b                   	pop    %rbx
  40276b:	5d                   	pop    %rbp
  40276c:	41 5c                	pop    %r12
  40276e:	41 5d                	pop    %r13
  402770:	41 5e                	pop    %r14
  402772:	41 5f                	pop    %r15
  402774:	c3                   	retq   
  402775:	66 66 2e 0f 1f 84 00 	data16 nopw %cs:0x0(%rax,%rax,1)
  40277c:	00 00 00 00 

0000000000402780 <__libc_csu_fini>:
__libc_csu_fini():
  402780:	f3 c3                	repz retq 

Disassembly of section .fini:

0000000000402784 <_fini>:
_fini():
  402784:	48 83 ec 08          	sub    $0x8,%rsp
  402788:	48 83 c4 08          	add    $0x8,%rsp
  40278c:	c3                   	retq   
